_ZN7android8hardware4wifi10supplicant4V1_111ISupplicant10descriptorE
_ZN7android8hardware4wifi10supplicant4V1_111ISupplicant10getServiceERKNSt3__112basic_stringIcNS5_11char_traitsIcEENS5_9allocatorIcEEEEb
_ZN7android8hardware4wifi10supplicant4V1_111ISupplicant11linkToDeathERKNS_2spINS0_20hidl_death_recipientEEEm
_ZN7android8hardware4wifi10supplicant4V1_111ISupplicant12getDebugInfoENSt3__18functionIFvRKNS_4hidl4base4V1_09DebugInfoEEEE
_ZN7android8hardware4wifi10supplicant4V1_111ISupplicant12getHashChainENSt3__18functionIFvRKNS0_8hidl_vecINS0_10hidl_arrayIhLm32EJEEEEEEEE
_ZN7android8hardware4wifi10supplicant4V1_111ISupplicant13tryGetServiceERKNSt3__112basic_stringIcNS5_11char_traitsIcEENS5_9allocatorIcEEEEb
_ZN7android8hardware4wifi10supplicant4V1_111ISupplicant13unlinkToDeathERKNS_2spINS0_20hidl_death_recipientEEE
_ZN7android8hardware4wifi10supplicant4V1_111ISupplicant14interfaceChainENSt3__18functionIFvRKNS0_8hidl_vecINS0_11hidl_stringEEEEEE
_ZN7android8hardware4wifi10supplicant4V1_111ISupplicant17registerAsServiceERKNSt3__112basic_stringIcNS5_11char_traitsIcEENS5_9allocatorIcEEEE
_ZN7android8hardware4wifi10supplicant4V1_111ISupplicant19interfaceDescriptorENSt3__18functionIFvRKNS0_11hidl_stringEEEE
_ZN7android8hardware4wifi10supplicant4V1_111ISupplicant21notifySyspropsChangedEv
_ZN7android8hardware4wifi10supplicant4V1_111ISupplicant21setHALInstrumentationEv
_ZN7android8hardware4wifi10supplicant4V1_111ISupplicant24registerForNotificationsERKNSt3__112basic_stringIcNS5_11char_traitsIcEENS5_9allocatorIcEEEERKNS_2spINS_4hidl7manager4V1_020IServiceNotificationEEE
_ZN7android8hardware4wifi10supplicant4V1_111ISupplicant4pingEv
_ZN7android8hardware4wifi10supplicant4V1_111ISupplicant5debugERKNS0_11hidl_handleERKNS0_8hidl_vecINS0_11hidl_stringEEE
_ZN7android8hardware4wifi10supplicant4V1_111ISupplicant8castFromERKNS_2spINS2_4V1_011ISupplicantEEEb
_ZN7android8hardware4wifi10supplicant4V1_111ISupplicant8castFromERKNS_2spINS_4hidl4base4V1_05IBaseEEEb
_ZN7android8hardware4wifi10supplicant4V1_111ISupplicant8castFromERKNS_2spIS4_EEb
_ZN7android8hardware4wifi10supplicant4V1_112BsSupplicant13addOnewayTaskENSt3__18functionIFvvEEE
_ZN7android8hardware4wifi10supplicant4V1_112BsSupplicantC1ENS_2spINS3_11ISupplicantEEE
_ZN7android8hardware4wifi10supplicant4V1_112BsSupplicantC2ENS_2spINS3_11ISupplicantEEE
_ZN7android8hardware4wifi10supplicant4V1_114BnHwSupplicant10onTransactEjRKNS0_6ParcelEPS5_jNSt3__18functionIFvRS5_EEE
_ZN7android8hardware4wifi10supplicant4V1_114BnHwSupplicant12getDebugInfoENSt3__18functionIFvRKNS_4hidl4base4V1_09DebugInfoEEEE
_ZN7android8hardware4wifi10supplicant4V1_114BnHwSupplicant15_hidl_terminateEPNS_4hidl4base4V1_08BnHwBaseERKNS0_6ParcelEPSA_NSt3__18functionIFvRSA_EEE
_ZN7android8hardware4wifi10supplicant4V1_114BnHwSupplicant18_hidl_addInterfaceEPNS_4hidl4base4V1_08BnHwBaseERKNS0_6ParcelEPSA_NSt3__18functionIFvRSA_EEE
_ZN7android8hardware4wifi10supplicant4V1_114BnHwSupplicant21_hidl_removeInterfaceEPNS_4hidl4base4V1_08BnHwBaseERKNS0_6ParcelEPSA_NSt3__18functionIFvRSA_EEE
_ZN7android8hardware4wifi10supplicant4V1_114BnHwSupplicant4pingEv
_ZN7android8hardware4wifi10supplicant4V1_114BnHwSupplicantC1ERKNS_2spINS3_11ISupplicantEEE
_ZN7android8hardware4wifi10supplicant4V1_114BnHwSupplicantC2ERKNS_2spINS3_11ISupplicantEEE
_ZN7android8hardware4wifi10supplicant4V1_114BnHwSupplicantD0Ev
_ZN7android8hardware4wifi10supplicant4V1_114BnHwSupplicantD1Ev
_ZN7android8hardware4wifi10supplicant4V1_114BnHwSupplicantD2Ev
_ZN7android8hardware4wifi10supplicant4V1_114BpHwSupplicant11linkToDeathERKNS_2spINS0_20hidl_death_recipientEEEm
_ZN7android8hardware4wifi10supplicant4V1_114BpHwSupplicant12addInterfaceERKNS2_4V1_011ISupplicant9IfaceInfoENSt3__18functionIFvRKNS5_16SupplicantStatusERKNS_2spINS5_16ISupplicantIfaceEEEEEE
_ZN7android8hardware4wifi10supplicant4V1_114BpHwSupplicant12getDebugInfoENSt3__18functionIFvRKNS_4hidl4base4V1_09DebugInfoEEEE
_ZN7android8hardware4wifi10supplicant4V1_114BpHwSupplicant12getHashChainENSt3__18functionIFvRKNS0_8hidl_vecINS0_10hidl_arrayIhLm32EJEEEEEEEE
_ZN7android8hardware4wifi10supplicant4V1_114BpHwSupplicant12getInterfaceERKNS2_4V1_011ISupplicant9IfaceInfoENSt3__18functionIFvRKNS5_16SupplicantStatusERKNS_2spINS5_16ISupplicantIfaceEEEEEE
_ZN7android8hardware4wifi10supplicant4V1_114BpHwSupplicant13getDebugLevelEv
_ZN7android8hardware4wifi10supplicant4V1_114BpHwSupplicant13unlinkToDeathERKNS_2spINS0_20hidl_death_recipientEEE
_ZN7android8hardware4wifi10supplicant4V1_114BpHwSupplicant14interfaceChainENSt3__18functionIFvRKNS0_8hidl_vecINS0_11hidl_stringEEEEEE
_ZN7android8hardware4wifi10supplicant4V1_114BpHwSupplicant14listInterfacesENSt3__18functionIFvRKNS2_4V1_016SupplicantStatusERKNS0_8hidl_vecINS7_11ISupplicant9IfaceInfoEEEEEE
_ZN7android8hardware4wifi10supplicant4V1_114BpHwSupplicant14setDebugParamsENS2_4V1_011ISupplicant10DebugLevelEbbNSt3__18functionIFvRKNS5_16SupplicantStatusEEEE
_ZN7android8hardware4wifi10supplicant4V1_114BpHwSupplicant15_hidl_terminateEPNS0_10IInterfaceEPNS0_7details16HidlInstrumentorE
_ZN7android8hardware4wifi10supplicant4V1_114BpHwSupplicant15removeInterfaceERKNS2_4V1_011ISupplicant9IfaceInfoENSt3__18functionIFvRKNS5_16SupplicantStatusEEEE
_ZN7android8hardware4wifi10supplicant4V1_114BpHwSupplicant16registerCallbackERKNS_2spINS2_4V1_019ISupplicantCallbackEEENSt3__18functionIFvRKNS6_16SupplicantStatusEEEE
_ZN7android8hardware4wifi10supplicant4V1_114BpHwSupplicant18_hidl_addInterfaceEPNS0_10IInterfaceEPNS0_7details16HidlInstrumentorERKNS2_4V1_011ISupplicant9IfaceInfoENSt3__18functionIFvRKNSA_16SupplicantStatusERKNS_2spINSA_16ISupplicantIfaceEEEEEE
_ZN7android8hardware4wifi10supplicant4V1_114BpHwSupplicant19interfaceDescriptorENSt3__18functionIFvRKNS0_11hidl_stringEEEE
_ZN7android8hardware4wifi10supplicant4V1_114BpHwSupplicant21_hidl_removeInterfaceEPNS0_10IInterfaceEPNS0_7details16HidlInstrumentorERKNS2_4V1_011ISupplicant9IfaceInfoENSt3__18functionIFvRKNSA_16SupplicantStatusEEEE
_ZN7android8hardware4wifi10supplicant4V1_114BpHwSupplicant21notifySyspropsChangedEv
_ZN7android8hardware4wifi10supplicant4V1_114BpHwSupplicant21setHALInstrumentationEv
_ZN7android8hardware4wifi10supplicant4V1_114BpHwSupplicant22isDebugShowKeysEnabledEv
_ZN7android8hardware4wifi10supplicant4V1_114BpHwSupplicant22setConcurrencyPriorityENS2_4V1_09IfaceTypeENSt3__18functionIFvRKNS5_16SupplicantStatusEEEE
_ZN7android8hardware4wifi10supplicant4V1_114BpHwSupplicant27isDebugShowTimestampEnabledEv
_ZN7android8hardware4wifi10supplicant4V1_114BpHwSupplicant4pingEv
_ZN7android8hardware4wifi10supplicant4V1_114BpHwSupplicant5debugERKNS0_11hidl_handleERKNS0_8hidl_vecINS0_11hidl_stringEEE
_ZN7android8hardware4wifi10supplicant4V1_114BpHwSupplicant9terminateEv
_ZN7android8hardware4wifi10supplicant4V1_114BpHwSupplicantC1ERKNS_2spINS0_7IBinderEEE
_ZN7android8hardware4wifi10supplicant4V1_114BpHwSupplicantC2ERKNS_2spINS0_7IBinderEEE
_ZN7android8hardware4wifi10supplicant4V1_121ISupplicantStaNetwork10descriptorE
_ZN7android8hardware4wifi10supplicant4V1_121ISupplicantStaNetwork10getServiceERKNSt3__112basic_stringIcNS5_11char_traitsIcEENS5_9allocatorIcEEEEb
_ZN7android8hardware4wifi10supplicant4V1_121ISupplicantStaNetwork11linkToDeathERKNS_2spINS0_20hidl_death_recipientEEEm
_ZN7android8hardware4wifi10supplicant4V1_121ISupplicantStaNetwork12getDebugInfoENSt3__18functionIFvRKNS_4hidl4base4V1_09DebugInfoEEEE
_ZN7android8hardware4wifi10supplicant4V1_121ISupplicantStaNetwork12getHashChainENSt3__18functionIFvRKNS0_8hidl_vecINS0_10hidl_arrayIhLm32EJEEEEEEEE
_ZN7android8hardware4wifi10supplicant4V1_121ISupplicantStaNetwork13tryGetServiceERKNSt3__112basic_stringIcNS5_11char_traitsIcEENS5_9allocatorIcEEEEb
_ZN7android8hardware4wifi10supplicant4V1_121ISupplicantStaNetwork13unlinkToDeathERKNS_2spINS0_20hidl_death_recipientEEE
_ZN7android8hardware4wifi10supplicant4V1_121ISupplicantStaNetwork14interfaceChainENSt3__18functionIFvRKNS0_8hidl_vecINS0_11hidl_stringEEEEEE
_ZN7android8hardware4wifi10supplicant4V1_121ISupplicantStaNetwork17registerAsServiceERKNSt3__112basic_stringIcNS5_11char_traitsIcEENS5_9allocatorIcEEEE
_ZN7android8hardware4wifi10supplicant4V1_121ISupplicantStaNetwork19interfaceDescriptorENSt3__18functionIFvRKNS0_11hidl_stringEEEE
_ZN7android8hardware4wifi10supplicant4V1_121ISupplicantStaNetwork21notifySyspropsChangedEv
_ZN7android8hardware4wifi10supplicant4V1_121ISupplicantStaNetwork21setHALInstrumentationEv
_ZN7android8hardware4wifi10supplicant4V1_121ISupplicantStaNetwork24registerForNotificationsERKNSt3__112basic_stringIcNS5_11char_traitsIcEENS5_9allocatorIcEEEERKNS_2spINS_4hidl7manager4V1_020IServiceNotificationEEE
_ZN7android8hardware4wifi10supplicant4V1_121ISupplicantStaNetwork4pingEv
_ZN7android8hardware4wifi10supplicant4V1_121ISupplicantStaNetwork5debugERKNS0_11hidl_handleERKNS0_8hidl_vecINS0_11hidl_stringEEE
_ZN7android8hardware4wifi10supplicant4V1_121ISupplicantStaNetwork8castFromERKNS_2spINS2_4V1_018ISupplicantNetworkEEEb
_ZN7android8hardware4wifi10supplicant4V1_121ISupplicantStaNetwork8castFromERKNS_2spINS2_4V1_021ISupplicantStaNetworkEEEb
_ZN7android8hardware4wifi10supplicant4V1_121ISupplicantStaNetwork8castFromERKNS_2spINS_4hidl4base4V1_05IBaseEEEb
_ZN7android8hardware4wifi10supplicant4V1_121ISupplicantStaNetwork8castFromERKNS_2spIS4_EEb
_ZN7android8hardware4wifi10supplicant4V1_122BsSupplicantStaNetwork13addOnewayTaskENSt3__18functionIFvvEEE
_ZN7android8hardware4wifi10supplicant4V1_122BsSupplicantStaNetworkC1ENS_2spINS3_21ISupplicantStaNetworkEEE
_ZN7android8hardware4wifi10supplicant4V1_122BsSupplicantStaNetworkC2ENS_2spINS3_21ISupplicantStaNetworkEEE
_ZN7android8hardware4wifi10supplicant4V1_124BnHwSupplicantStaNetwork10onTransactEjRKNS0_6ParcelEPS5_jNSt3__18functionIFvRS5_EEE
_ZN7android8hardware4wifi10supplicant4V1_124BnHwSupplicantStaNetwork12getDebugInfoENSt3__18functionIFvRKNS_4hidl4base4V1_09DebugInfoEEEE
_ZN7android8hardware4wifi10supplicant4V1_124BnHwSupplicantStaNetwork33_hidl_setEapEncryptedImsiIdentityEPNS_4hidl4base4V1_08BnHwBaseERKNS0_6ParcelEPSA_NSt3__18functionIFvRSA_EEE
_ZN7android8hardware4wifi10supplicant4V1_124BnHwSupplicantStaNetwork40_hidl_sendNetworkEapIdentityResponse_1_1EPNS_4hidl4base4V1_08BnHwBaseERKNS0_6ParcelEPSA_NSt3__18functionIFvRSA_EEE
_ZN7android8hardware4wifi10supplicant4V1_124BnHwSupplicantStaNetwork4pingEv
_ZN7android8hardware4wifi10supplicant4V1_124BnHwSupplicantStaNetworkC1ERKNS_2spINS3_21ISupplicantStaNetworkEEE
_ZN7android8hardware4wifi10supplicant4V1_124BnHwSupplicantStaNetworkC2ERKNS_2spINS3_21ISupplicantStaNetworkEEE
_ZN7android8hardware4wifi10supplicant4V1_124BnHwSupplicantStaNetworkD0Ev
_ZN7android8hardware4wifi10supplicant4V1_124BnHwSupplicantStaNetworkD1Ev
_ZN7android8hardware4wifi10supplicant4V1_124BnHwSupplicantStaNetworkD2Ev
_ZN7android8hardware4wifi10supplicant4V1_124BpHwSupplicantStaNetwork10getAuthAlgENSt3__18functionIFvRKNS2_4V1_016SupplicantStatusEjEEE
_ZN7android8hardware4wifi10supplicant4V1_124BpHwSupplicantStaNetwork10getKeyMgmtENSt3__18functionIFvRKNS2_4V1_016SupplicantStatusEjEEE
_ZN7android8hardware4wifi10supplicant4V1_124BpHwSupplicantStaNetwork10setAuthAlgEjNSt3__18functionIFvRKNS2_4V1_016SupplicantStatusEEEE
_ZN7android8hardware4wifi10supplicant4V1_124BpHwSupplicantStaNetwork10setKeyMgmtEjNSt3__18functionIFvRKNS2_4V1_016SupplicantStatusEEEE
_ZN7android8hardware4wifi10supplicant4V1_124BpHwSupplicantStaNetwork11getScanSsidENSt3__18functionIFvRKNS2_4V1_016SupplicantStatusEbEEE
_ZN7android8hardware4wifi10supplicant4V1_124BpHwSupplicantStaNetwork11linkToDeathERKNS_2spINS0_20hidl_death_recipientEEEm
_ZN7android8hardware4wifi10supplicant4V1_124BpHwSupplicantStaNetwork11setScanSsidEbNSt3__18functionIFvRKNS2_4V1_016SupplicantStatusEEEE
_ZN7android8hardware4wifi10supplicant4V1_124BpHwSupplicantStaNetwork12getDebugInfoENSt3__18functionIFvRKNS_4hidl4base4V1_09DebugInfoEEEE
_ZN7android8hardware4wifi10supplicant4V1_124BpHwSupplicantStaNetwork12getEapCACertENSt3__18functionIFvRKNS2_4V1_016SupplicantStatusERKNS0_11hidl_stringEEEE
_ZN7android8hardware4wifi10supplicant4V1_124BpHwSupplicantStaNetwork12getEapCAPathENSt3__18functionIFvRKNS2_4V1_016SupplicantStatusERKNS0_11hidl_stringEEEE
_ZN7android8hardware4wifi10supplicant4V1_124BpHwSupplicantStaNetwork12getEapEngineENSt3__18functionIFvRKNS2_4V1_016SupplicantStatusEbEEE
_ZN7android8hardware4wifi10supplicant4V1_124BpHwSupplicantStaNetwork12getEapMethodENSt3__18functionIFvRKNS2_4V1_016SupplicantStatusENS7_21ISupplicantStaNetwork9EapMethodEEEE
_ZN7android8hardware4wifi10supplicant4V1_124BpHwSupplicantStaNetwork12getHashChainENSt3__18functionIFvRKNS0_8hidl_vecINS0_10hidl_arrayIhLm32EJEEEEEEEE
_ZN7android8hardware4wifi10supplicant4V1_124BpHwSupplicantStaNetwork12setEapCACertERKNS0_11hidl_stringENSt3__18functionIFvRKNS2_4V1_016SupplicantStatusEEEE
_ZN7android8hardware4wifi10supplicant4V1_124BpHwSupplicantStaNetwork12setEapCAPathERKNS0_11hidl_stringENSt3__18functionIFvRKNS2_4V1_016SupplicantStatusEEEE
_ZN7android8hardware4wifi10supplicant4V1_124BpHwSupplicantStaNetwork12setEapEngineEbNSt3__18functionIFvRKNS2_4V1_016SupplicantStatusEEEE
_ZN7android8hardware4wifi10supplicant4V1_124BpHwSupplicantStaNetwork12setEapMethodENS2_4V1_021ISupplicantStaNetwork9EapMethodENSt3__18functionIFvRKNS5_16SupplicantStatusEEEE
_ZN7android8hardware4wifi10supplicant4V1_124BpHwSupplicantStaNetwork13getRequirePmfENSt3__18functionIFvRKNS2_4V1_016SupplicantStatusEbEEE
_ZN7android8hardware4wifi10supplicant4V1_124BpHwSupplicantStaNetwork13setRequirePmfEbNSt3__18functionIFvRKNS2_4V1_016SupplicantStatusEEEE
_ZN7android8hardware4wifi10supplicant4V1_124BpHwSupplicantStaNetwork13unlinkToDeathERKNS_2spINS0_20hidl_death_recipientEEE
_ZN7android8hardware4wifi10supplicant4V1_124BpHwSupplicantStaNetwork14getEapEngineIDENSt3__18functionIFvRKNS2_4V1_016SupplicantStatusERKNS0_11hidl_stringEEEE
_ZN7android8hardware4wifi10supplicant4V1_124BpHwSupplicantStaNetwork14getEapIdentityENSt3__18functionIFvRKNS2_4V1_016SupplicantStatusERKNS0_8hidl_vecIhEEEEE
_ZN7android8hardware4wifi10supplicant4V1_124BpHwSupplicantStaNetwork14getEapPasswordENSt3__18functionIFvRKNS2_4V1_016SupplicantStatusERKNS0_8hidl_vecIhEEEEE
_ZN7android8hardware4wifi10supplicant4V1_124BpHwSupplicantStaNetwork14getGroupCipherENSt3__18functionIFvRKNS2_4V1_016SupplicantStatusEjEEE
_ZN7android8hardware4wifi10supplicant4V1_124BpHwSupplicantStaNetwork14getWepTxKeyIdxENSt3__18functionIFvRKNS2_4V1_016SupplicantStatusEjEEE
_ZN7android8hardware4wifi10supplicant4V1_124BpHwSupplicantStaNetwork14interfaceChainENSt3__18functionIFvRKNS0_8hidl_vecINS0_11hidl_stringEEEEEE
_ZN7android8hardware4wifi10supplicant4V1_124BpHwSupplicantStaNetwork14setEapEngineIDERKNS0_11hidl_stringENSt3__18functionIFvRKNS2_4V1_016SupplicantStatusEEEE
_ZN7android8hardware4wifi10supplicant4V1_124BpHwSupplicantStaNetwork14setEapIdentityERKNS0_8hidl_vecIhEENSt3__18functionIFvRKNS2_4V1_016SupplicantStatusEEEE
_ZN7android8hardware4wifi10supplicant4V1_124BpHwSupplicantStaNetwork14setEapPasswordERKNS0_8hidl_vecIhEENSt3__18functionIFvRKNS2_4V1_016SupplicantStatusEEEE
_ZN7android8hardware4wifi10supplicant4V1_124BpHwSupplicantStaNetwork14setGroupCipherEjNSt3__18functionIFvRKNS2_4V1_016SupplicantStatusEEEE
_ZN7android8hardware4wifi10supplicant4V1_124BpHwSupplicantStaNetwork14setWepTxKeyIdxEjNSt3__18functionIFvRKNS2_4V1_016SupplicantStatusEEEE
_ZN7android8hardware4wifi10supplicant4V1_124BpHwSupplicantStaNetwork16getEapClientCertENSt3__18functionIFvRKNS2_4V1_016SupplicantStatusERKNS0_11hidl_stringEEEE
_ZN7android8hardware4wifi10supplicant4V1_124BpHwSupplicantStaNetwork16getInterfaceNameENSt3__18functionIFvRKNS2_4V1_016SupplicantStatusERKNS0_11hidl_stringEEEE
_ZN7android8hardware4wifi10supplicant4V1_124BpHwSupplicantStaNetwork16getPskPassphraseENSt3__18functionIFvRKNS2_4V1_016SupplicantStatusERKNS0_11hidl_stringEEEE
_ZN7android8hardware4wifi10supplicant4V1_124BpHwSupplicantStaNetwork16registerCallbackERKNS_2spINS2_4V1_029ISupplicantStaNetworkCallbackEEENSt3__18functionIFvRKNS6_16SupplicantStatusEEEE
_ZN7android8hardware4wifi10supplicant4V1_124BpHwSupplicantStaNetwork16setEapClientCertERKNS0_11hidl_stringENSt3__18functionIFvRKNS2_4V1_016SupplicantStatusEEEE
_ZN7android8hardware4wifi10supplicant4V1_124BpHwSupplicantStaNetwork16setPskPassphraseERKNS0_11hidl_stringENSt3__18functionIFvRKNS2_4V1_016SupplicantStatusEEEE
_ZN7android8hardware4wifi10supplicant4V1_124BpHwSupplicantStaNetwork17getPairwiseCipherENSt3__18functionIFvRKNS2_4V1_016SupplicantStatusEjEEE
_ZN7android8hardware4wifi10supplicant4V1_124BpHwSupplicantStaNetwork17setPairwiseCipherEjNSt3__18functionIFvRKNS2_4V1_016SupplicantStatusEEEE
_ZN7android8hardware4wifi10supplicant4V1_124BpHwSupplicantStaNetwork18getEapPhase2MethodENSt3__18functionIFvRKNS2_4V1_016SupplicantStatusENS7_21ISupplicantStaNetwork15EapPhase2MethodEEEE
_ZN7android8hardware4wifi10supplicant4V1_124BpHwSupplicantStaNetwork18getEapPrivateKeyIdENSt3__18functionIFvRKNS2_4V1_016SupplicantStatusERKNS0_11hidl_stringEEEE
_ZN7android8hardware4wifi10supplicant4V1_124BpHwSupplicantStaNetwork18getEapSubjectMatchENSt3__18functionIFvRKNS2_4V1_016SupplicantStatusERKNS0_11hidl_stringEEEE
_ZN7android8hardware4wifi10supplicant4V1_124BpHwSupplicantStaNetwork18setEapPhase2MethodENS2_4V1_021ISupplicantStaNetwork15EapPhase2MethodENSt3__18functionIFvRKNS5_16SupplicantStatusEEEE
_ZN7android8hardware4wifi10supplicant4V1_124BpHwSupplicantStaNetwork18setEapPrivateKeyIdERKNS0_11hidl_stringENSt3__18functionIFvRKNS2_4V1_016SupplicantStatusEEEE
_ZN7android8hardware4wifi10supplicant4V1_124BpHwSupplicantStaNetwork18setEapSubjectMatchERKNS0_11hidl_stringENSt3__18functionIFvRKNS2_4V1_016SupplicantStatusEEEE
_ZN7android8hardware4wifi10supplicant4V1_124BpHwSupplicantStaNetwork19interfaceDescriptorENSt3__18functionIFvRKNS0_11hidl_stringEEEE
_ZN7android8hardware4wifi10supplicant4V1_124BpHwSupplicantStaNetwork19setUpdateIdentifierEjNSt3__18functionIFvRKNS2_4V1_016SupplicantStatusEEEE
_ZN7android8hardware4wifi10supplicant4V1_124BpHwSupplicantStaNetwork21getEapAltSubjectMatchENSt3__18functionIFvRKNS2_4V1_016SupplicantStatusERKNS0_11hidl_stringEEEE
_ZN7android8hardware4wifi10supplicant4V1_124BpHwSupplicantStaNetwork21notifySyspropsChangedEv
_ZN7android8hardware4wifi10supplicant4V1_124BpHwSupplicantStaNetwork21setEapAltSubjectMatchERKNS0_11hidl_stringENSt3__18functionIFvRKNS2_4V1_016SupplicantStatusEEEE
_ZN7android8hardware4wifi10supplicant4V1_124BpHwSupplicantStaNetwork21setHALInstrumentationEv
_ZN7android8hardware4wifi10supplicant4V1_124BpHwSupplicantStaNetwork22setProactiveKeyCachingEbNSt3__18functionIFvRKNS2_4V1_016SupplicantStatusEEEE
_ZN7android8hardware4wifi10supplicant4V1_124BpHwSupplicantStaNetwork23getEapAnonymousIdentityENSt3__18functionIFvRKNS2_4V1_016SupplicantStatusERKNS0_8hidl_vecIhEEEEE
_ZN7android8hardware4wifi10supplicant4V1_124BpHwSupplicantStaNetwork23getEapDomainSuffixMatchENSt3__18functionIFvRKNS2_4V1_016SupplicantStatusERKNS0_11hidl_stringEEEE
_ZN7android8hardware4wifi10supplicant4V1_124BpHwSupplicantStaNetwork23setEapAnonymousIdentityERKNS0_8hidl_vecIhEENSt3__18functionIFvRKNS2_4V1_016SupplicantStatusEEEE
_ZN7android8hardware4wifi10supplicant4V1_124BpHwSupplicantStaNetwork23setEapDomainSuffixMatchERKNS0_11hidl_stringENSt3__18functionIFvRKNS2_4V1_016SupplicantStatusEEEE
_ZN7android8hardware4wifi10supplicant4V1_124BpHwSupplicantStaNetwork27getWpsNfcConfigurationTokenENSt3__18functionIFvRKNS2_4V1_016SupplicantStatusERKNS0_8hidl_vecIhEEEEE
_ZN7android8hardware4wifi10supplicant4V1_124BpHwSupplicantStaNetwork27setEapEncryptedImsiIdentityERKNS0_8hidl_vecIhEENSt3__18functionIFvRKNS2_4V1_016SupplicantStatusEEEE
_ZN7android8hardware4wifi10supplicant4V1_124BpHwSupplicantStaNetwork30sendNetworkEapIdentityResponseERKNS0_8hidl_vecIhEENSt3__18functionIFvRKNS2_4V1_016SupplicantStatusEEEE
_ZN7android8hardware4wifi10supplicant4V1_124BpHwSupplicantStaNetwork31sendNetworkEapSimGsmAuthFailureENSt3__18functionIFvRKNS2_4V1_016SupplicantStatusEEEE
_ZN7android8hardware4wifi10supplicant4V1_124BpHwSupplicantStaNetwork32sendNetworkEapSimGsmAuthResponseERKNS0_8hidl_vecINS2_4V1_021ISupplicantStaNetwork34NetworkResponseEapSimGsmAuthParamsEEENSt3__18functionIFvRKNS6_16SupplicantStatusEEEE
_ZN7android8hardware4wifi10supplicant4V1_124BpHwSupplicantStaNetwork32sendNetworkEapSimUmtsAuthFailureENSt3__18functionIFvRKNS2_4V1_016SupplicantStatusEEEE
_ZN7android8hardware4wifi10supplicant4V1_124BpHwSupplicantStaNetwork33_hidl_setEapEncryptedImsiIdentityEPNS0_10IInterfaceEPNS0_7details16HidlInstrumentorERKNS0_8hidl_vecIhEENSt3__18functionIFvRKNS2_4V1_016SupplicantStatusEEEE
_ZN7android8hardware4wifi10supplicant4V1_124BpHwSupplicantStaNetwork33sendNetworkEapSimUmtsAuthResponseERKNS2_4V1_021ISupplicantStaNetwork35NetworkResponseEapSimUmtsAuthParamsENSt3__18functionIFvRKNS5_16SupplicantStatusEEEE
_ZN7android8hardware4wifi10supplicant4V1_124BpHwSupplicantStaNetwork33sendNetworkEapSimUmtsAutsResponseERKNS0_10hidl_arrayIhLm14EJEEENSt3__18functionIFvRKNS2_4V1_016SupplicantStatusEEEE
_ZN7android8hardware4wifi10supplicant4V1_124BpHwSupplicantStaNetwork34sendNetworkEapIdentityResponse_1_1ERKNS0_8hidl_vecIhEES8_NSt3__18functionIFvRKNS2_4V1_016SupplicantStatusEEEE
_ZN7android8hardware4wifi10supplicant4V1_124BpHwSupplicantStaNetwork40_hidl_sendNetworkEapIdentityResponse_1_1EPNS0_10IInterfaceEPNS0_7details16HidlInstrumentorERKNS0_8hidl_vecIhEESD_NSt3__18functionIFvRKNS2_4V1_016SupplicantStatusEEEE
_ZN7android8hardware4wifi10supplicant4V1_124BpHwSupplicantStaNetwork4pingEv
_ZN7android8hardware4wifi10supplicant4V1_124BpHwSupplicantStaNetwork5debugERKNS0_11hidl_handleERKNS0_8hidl_vecINS0_11hidl_stringEEE
_ZN7android8hardware4wifi10supplicant4V1_124BpHwSupplicantStaNetwork5getIdENSt3__18functionIFvRKNS2_4V1_016SupplicantStatusEjEEE
_ZN7android8hardware4wifi10supplicant4V1_124BpHwSupplicantStaNetwork6enableEbNSt3__18functionIFvRKNS2_4V1_016SupplicantStatusEEEE
_ZN7android8hardware4wifi10supplicant4V1_124BpHwSupplicantStaNetwork6getPskENSt3__18functionIFvRKNS2_4V1_016SupplicantStatusERKNS0_10hidl_arrayIhLm32EJEEEEEE
_ZN7android8hardware4wifi10supplicant4V1_124BpHwSupplicantStaNetwork6selectENSt3__18functionIFvRKNS2_4V1_016SupplicantStatusEEEE
_ZN7android8hardware4wifi10supplicant4V1_124BpHwSupplicantStaNetwork6setPskERKNS0_10hidl_arrayIhLm32EJEEENSt3__18functionIFvRKNS2_4V1_016SupplicantStatusEEEE
_ZN7android8hardware4wifi10supplicant4V1_124BpHwSupplicantStaNetwork7disableENSt3__18functionIFvRKNS2_4V1_016SupplicantStatusEEEE
_ZN7android8hardware4wifi10supplicant4V1_124BpHwSupplicantStaNetwork7getSsidENSt3__18functionIFvRKNS2_4V1_016SupplicantStatusERKNS0_8hidl_vecIhEEEEE
_ZN7android8hardware4wifi10supplicant4V1_124BpHwSupplicantStaNetwork7getTypeENSt3__18functionIFvRKNS2_4V1_016SupplicantStatusENS7_9IfaceTypeEEEE
_ZN7android8hardware4wifi10supplicant4V1_124BpHwSupplicantStaNetwork7setSsidERKNS0_8hidl_vecIhEENSt3__18functionIFvRKNS2_4V1_016SupplicantStatusEEEE
_ZN7android8hardware4wifi10supplicant4V1_124BpHwSupplicantStaNetwork8getBssidENSt3__18functionIFvRKNS2_4V1_016SupplicantStatusERKNS0_10hidl_arrayIhLm6EJEEEEEE
_ZN7android8hardware4wifi10supplicant4V1_124BpHwSupplicantStaNetwork8getIdStrENSt3__18functionIFvRKNS2_4V1_016SupplicantStatusERKNS0_11hidl_stringEEEE
_ZN7android8hardware4wifi10supplicant4V1_124BpHwSupplicantStaNetwork8getProtoENSt3__18functionIFvRKNS2_4V1_016SupplicantStatusEjEEE
_ZN7android8hardware4wifi10supplicant4V1_124BpHwSupplicantStaNetwork8setBssidERKNS0_10hidl_arrayIhLm6EJEEENSt3__18functionIFvRKNS2_4V1_016SupplicantStatusEEEE
_ZN7android8hardware4wifi10supplicant4V1_124BpHwSupplicantStaNetwork8setIdStrERKNS0_11hidl_stringENSt3__18functionIFvRKNS2_4V1_016SupplicantStatusEEEE
_ZN7android8hardware4wifi10supplicant4V1_124BpHwSupplicantStaNetwork8setProtoEjNSt3__18functionIFvRKNS2_4V1_016SupplicantStatusEEEE
_ZN7android8hardware4wifi10supplicant4V1_124BpHwSupplicantStaNetwork9getWepKeyEjNSt3__18functionIFvRKNS2_4V1_016SupplicantStatusERKNS0_8hidl_vecIhEEEEE
_ZN7android8hardware4wifi10supplicant4V1_124BpHwSupplicantStaNetwork9setWepKeyEjRKNS0_8hidl_vecIhEENSt3__18functionIFvRKNS2_4V1_016SupplicantStatusEEEE
_ZN7android8hardware4wifi10supplicant4V1_124BpHwSupplicantStaNetworkC1ERKNS_2spINS0_7IBinderEEE
_ZN7android8hardware4wifi10supplicant4V1_124BpHwSupplicantStaNetworkC2ERKNS_2spINS0_7IBinderEEE
_ZN7android8hardware4wifi10supplicant4V1_18toStringERKNS_2spINS3_11ISupplicantEEE
_ZN7android8hardware4wifi10supplicant4V1_18toStringERKNS_2spINS3_21ISupplicantStaNetworkEEE
_ZTCN7android8hardware4wifi10supplicant4V1_111ISupplicantE0_NS2_4V1_011ISupplicantE
_ZTCN7android8hardware4wifi10supplicant4V1_111ISupplicantE0_NS_4hidl4base4V1_05IBaseE
_ZTCN7android8hardware4wifi10supplicant4V1_114BnHwSupplicantE0_NS0_7IBinderE
_ZTCN7android8hardware4wifi10supplicant4V1_114BnHwSupplicantE0_NS0_9BHwBinderE
_ZTCN7android8hardware4wifi10supplicant4V1_114BnHwSupplicantE0_NS_4hidl4base4V1_08BnHwBaseE
_ZTCN7android8hardware4wifi10supplicant4V1_114BpHwSupplicantE0_NS0_11BpInterfaceINS3_11ISupplicantEEE
_ZTCN7android8hardware4wifi10supplicant4V1_114BpHwSupplicantE0_NS2_4V1_011ISupplicantE
_ZTCN7android8hardware4wifi10supplicant4V1_114BpHwSupplicantE0_NS3_11ISupplicantE
_ZTCN7android8hardware4wifi10supplicant4V1_114BpHwSupplicantE0_NS_4hidl4base4V1_05IBaseE
_ZTCN7android8hardware4wifi10supplicant4V1_114BpHwSupplicantE16_NS0_11BpHwRefBaseE
_ZTCN7android8hardware4wifi10supplicant4V1_114BpHwSupplicantE8_NS0_10IInterfaceE
_ZTCN7android8hardware4wifi10supplicant4V1_121ISupplicantStaNetworkE0_NS2_4V1_018ISupplicantNetworkE
_ZTCN7android8hardware4wifi10supplicant4V1_121ISupplicantStaNetworkE0_NS2_4V1_021ISupplicantStaNetworkE
_ZTCN7android8hardware4wifi10supplicant4V1_121ISupplicantStaNetworkE0_NS_4hidl4base4V1_05IBaseE
_ZTCN7android8hardware4wifi10supplicant4V1_124BnHwSupplicantStaNetworkE0_NS0_7IBinderE
_ZTCN7android8hardware4wifi10supplicant4V1_124BnHwSupplicantStaNetworkE0_NS0_9BHwBinderE
_ZTCN7android8hardware4wifi10supplicant4V1_124BnHwSupplicantStaNetworkE0_NS_4hidl4base4V1_08BnHwBaseE
_ZTCN7android8hardware4wifi10supplicant4V1_124BpHwSupplicantStaNetworkE0_NS0_11BpInterfaceINS3_21ISupplicantStaNetworkEEE
_ZTCN7android8hardware4wifi10supplicant4V1_124BpHwSupplicantStaNetworkE0_NS2_4V1_018ISupplicantNetworkE
_ZTCN7android8hardware4wifi10supplicant4V1_124BpHwSupplicantStaNetworkE0_NS2_4V1_021ISupplicantStaNetworkE
_ZTCN7android8hardware4wifi10supplicant4V1_124BpHwSupplicantStaNetworkE0_NS3_21ISupplicantStaNetworkE
_ZTCN7android8hardware4wifi10supplicant4V1_124BpHwSupplicantStaNetworkE0_NS_4hidl4base4V1_05IBaseE
_ZTCN7android8hardware4wifi10supplicant4V1_124BpHwSupplicantStaNetworkE16_NS0_11BpHwRefBaseE
_ZTCN7android8hardware4wifi10supplicant4V1_124BpHwSupplicantStaNetworkE8_NS0_10IInterfaceE
_ZTTN7android8hardware4wifi10supplicant4V1_111ISupplicantE
_ZTTN7android8hardware4wifi10supplicant4V1_114BnHwSupplicantE
_ZTTN7android8hardware4wifi10supplicant4V1_114BpHwSupplicantE
_ZTTN7android8hardware4wifi10supplicant4V1_121ISupplicantStaNetworkE
_ZTTN7android8hardware4wifi10supplicant4V1_124BnHwSupplicantStaNetworkE
_ZTTN7android8hardware4wifi10supplicant4V1_124BpHwSupplicantStaNetworkE
_ZTVN7android8hardware4wifi10supplicant4V1_111ISupplicantE
_ZTVN7android8hardware4wifi10supplicant4V1_114BnHwSupplicantE
_ZTVN7android8hardware4wifi10supplicant4V1_114BpHwSupplicantE
_ZTVN7android8hardware4wifi10supplicant4V1_121ISupplicantStaNetworkE
_ZTVN7android8hardware4wifi10supplicant4V1_124BnHwSupplicantStaNetworkE
_ZTVN7android8hardware4wifi10supplicant4V1_124BpHwSupplicantStaNetworkE
_ZThn32_N7android8hardware4wifi10supplicant4V1_114BnHwSupplicantD0Ev
_ZThn32_N7android8hardware4wifi10supplicant4V1_114BnHwSupplicantD1Ev
_ZThn32_N7android8hardware4wifi10supplicant4V1_124BnHwSupplicantStaNetworkD0Ev
_ZThn32_N7android8hardware4wifi10supplicant4V1_124BnHwSupplicantStaNetworkD1Ev
_ZTv0_n24_N7android8hardware4wifi10supplicant4V1_114BnHwSupplicantD0Ev
_ZTv0_n24_N7android8hardware4wifi10supplicant4V1_114BnHwSupplicantD1Ev
_ZTv0_n24_N7android8hardware4wifi10supplicant4V1_124BnHwSupplicantStaNetworkD0Ev
_ZTv0_n24_N7android8hardware4wifi10supplicant4V1_124BnHwSupplicantStaNetworkD1Ev
