_ZN6vendor6google5media2c24V1_014implementation14ComponentStore10copyBufferERKNS3_6BufferES8_
_ZN6vendor6google5media2c24V1_014implementation14ComponentStore14listComponentsENSt3__18functionIFvRKN7android8hardware8hidl_vecINS3_15IComponentStore15ComponentTraitsEEEEEE
_ZN6vendor6google5media2c24V1_014implementation14ComponentStore15createComponentERKN7android8hardware11hidl_stringERKNS6_2spINS3_18IComponentListenerEEERKNSB_INS7_5media10bufferpool4V1_014IClientManagerEEENSt3__18functionIFvNS3_6StatusERKNSB_INS3_10IComponentEEEEEE
_ZN6vendor6google5media2c24V1_014implementation14ComponentStore15createInterfaceERKN7android8hardware11hidl_stringENSt3__18functionIFvNS3_6StatusERKNS6_2spINS3_19IComponentInterfaceEEEEEE
_ZN6vendor6google5media2c24V1_014implementation14ComponentStore18createInputSurfaceEv
_ZN6vendor6google5media2c24V1_014implementation14ComponentStore20getPoolClientManagerEv
_ZN6vendor6google5media2c24V1_014implementation14ComponentStore20getStructDescriptorsERKN7android8hardware8hidl_vecIjEENSt3__18functionIFvNS3_6StatusERKNS8_INS3_16StructDescriptorEEEEEE
_ZN6vendor6google5media2c24V1_014implementation14ComponentStore23validateSupportedParamsERKNSt3__16vectorINS6_10shared_ptrI17C2ParamDescriptorEENS6_9allocatorISA_EEEE
_ZN6vendor6google5media2c24V1_014implementation14ComponentStoreC1ERKNSt3__110shared_ptrI16C2ComponentStoreEE
_ZN6vendor6google5media2c24V1_014implementation14ComponentStoreC2ERKNSt3__110shared_ptrI16C2ComponentStoreEE
_ZN6vendor6google5media2c24V1_014implementation15parseParamsBlobEPNSt3__16vectorIP7C2ParamNS5_9allocatorIS8_EEEERKN7android8hardware8hidl_vecIhEE
_ZN6vendor6google5media2c24V1_014implementation16createParamsBlobEPN7android8hardware8hidl_vecIhEERKNSt3__16vectorINSA_10shared_ptrIK6C2InfoEENSA_9allocatorISF_EEEE
_ZN6vendor6google5media2c24V1_014implementation16createParamsBlobEPN7android8hardware8hidl_vecIhEERKNSt3__16vectorINSA_10unique_ptrI7C2ParamNSA_14default_deleteISD_EEEENSA_9allocatorISG_EEEE
_ZN6vendor6google5media2c24V1_014implementation16createParamsBlobEPN7android8hardware8hidl_vecIhEERKNSt3__16vectorINSA_10unique_ptrI8C2TuningNSA_14default_deleteISD_EEEENSA_9allocatorISG_EEEE
_ZN6vendor6google5media2c24V1_014implementation16createParamsBlobEPN7android8hardware8hidl_vecIhEERKNSt3__16vectorIP7C2ParamNSA_9allocatorISD_EEEE
_ZN6vendor6google5media2c24V1_014implementation16createParamsBlobEPN7android8hardware8hidl_vecIhEERKNSt3__16vectorIPK7C2ParamNSA_9allocatorISE_EEEE
_ZN6vendor6google5media2c24V1_014implementation18CachedConfigurable20querySupportedParamsEjjNSt3__18functionIFvNS3_6StatusERKN7android8hardware8hidl_vecINS3_15ParamDescriptorEEEEEE
_ZN6vendor6google5media2c24V1_014implementation18CachedConfigurable20querySupportedValuesERKN7android8hardware8hidl_vecINS3_25FieldSupportedValuesQueryEEEbNSt3__18functionIFvNS3_6StatusERKNS8_INS3_31FieldSupportedValuesQueryResultEEEEEE
_ZN6vendor6google5media2c24V1_014implementation18CachedConfigurable4initEPNS4_14ComponentStoreE
_ZN6vendor6google5media2c24V1_014implementation18CachedConfigurable5queryERKN7android8hardware8hidl_vecIjEEbNSt3__18functionIFvNS3_6StatusERKNS8_IhEEEEE
_ZN6vendor6google5media2c24V1_014implementation18CachedConfigurable6configERKN7android8hardware8hidl_vecIhEEbNSt3__18functionIFvNS3_6StatusERKNS8_INS3_13SettingResultEEESB_EEE
_ZN6vendor6google5media2c24V1_014implementation18CachedConfigurable7getNameENSt3__18functionIFvRKN7android8hardware11hidl_stringEEEE
_ZN6vendor6google5media2c24V1_014implementation18CachedConfigurableC1EONSt3__110unique_ptrINS4_18ConfigurableC2IntfENS6_14default_deleteIS8_EEEE
_ZN6vendor6google5media2c24V1_014implementation18CachedConfigurableC2EONSt3__110unique_ptrINS4_18ConfigurableC2IntfENS6_14default_deleteIS8_EEEE
_ZN6vendor6google5media2c24V1_014implementation18ComponentInterfaceC1ERKNSt3__110shared_ptrI20C2ComponentInterfaceEERKN7android2spINS4_14ComponentStoreEEE
_ZN6vendor6google5media2c24V1_014implementation18ComponentInterfaceC2ERKNSt3__110shared_ptrI20C2ComponentInterfaceEERKN7android2spINS4_14ComponentStoreEEE
_ZN6vendor6google5media2c24V1_014implementation18copyParamsFromBlobEPNSt3__16vectorINS5_10unique_ptrI7C2ParamNS5_14default_deleteIS8_EEEENS5_9allocatorISB_EEEEN7android8hardware8hidl_vecIhEE
_ZN6vendor6google5media2c24V1_014implementation20updateParamsFromBlobERKNSt3__16vectorIP7C2ParamNS5_9allocatorIS8_EEEERKN7android8hardware8hidl_vecIhEE
_ZN6vendor6google5media2c24V1_014implementation6objcpyEP18C2StructDescriptorRKNS3_16StructDescriptorE
_ZN6vendor6google5media2c24V1_014implementation6objcpyEP27C2FieldSupportedValuesQueryRKNS3_25FieldSupportedValuesQueryE
_ZN6vendor6google5media2c24V1_014implementation6objcpyEP27C2FieldSupportedValuesQueryRKNS3_25FieldSupportedValuesQueryERKNS3_31FieldSupportedValuesQueryResultE
_ZN6vendor6google5media2c24V1_014implementation6objcpyEPN11C2Component6TraitsEPNSt3__110unique_ptrINS8_6vectorINS8_12basic_stringIcNS8_11char_traitsIcEENS8_9allocatorIcEEEENSE_ISG_EEEENS8_14default_deleteISI_EEEERKNS3_15IComponentStore15ComponentTraitsE
_ZN6vendor6google5media2c24V1_014implementation6objcpyEPNS3_10WorkBundleERKNSt3__14listINS7_10unique_ptrI6C2WorkNS7_14default_deleteISA_EEEENS7_9allocatorISD_EEEE
_ZN6vendor6google5media2c24V1_014implementation6objcpyEPNS3_13SettingResultERK15C2SettingResult
_ZN6vendor6google5media2c24V1_014implementation6objcpyEPNS3_15IComponentStore15ComponentTraitsERKN11C2Component6TraitsE
_ZN6vendor6google5media2c24V1_014implementation6objcpyEPNS3_15ParamDescriptorERK17C2ParamDescriptor
_ZN6vendor6google5media2c24V1_014implementation6objcpyEPNS3_16StructDescriptorERK18C2StructDescriptor
_ZN6vendor6google5media2c24V1_014implementation6objcpyEPNS3_25FieldSupportedValuesQueryERK27C2FieldSupportedValuesQuery
_ZN6vendor6google5media2c24V1_014implementation6objcpyEPNS3_31FieldSupportedValuesQueryResultERK27C2FieldSupportedValuesQuery
_ZN6vendor6google5media2c24V1_014implementation6objcpyEPNSt3__110shared_ptrI17C2ParamDescriptorEERKNS3_15ParamDescriptorE
_ZN6vendor6google5media2c24V1_014implementation6objcpyEPNSt3__110unique_ptrI15C2SettingResultNS5_14default_deleteIS7_EEEERKNS3_13SettingResultE
_ZN6vendor6google5media2c24V1_014implementation6objcpyEPNSt3__14listINS5_10unique_ptrI6C2WorkNS5_14default_deleteIS8_EEEENS5_9allocatorISB_EEEERKNS3_10WorkBundleE
_ZN6vendor6google5media2c24V1_014implementation9Component15createBlockPoolEjNSt3__18functionIFvNS3_6StatusEmRKN7android2spINS3_13IConfigurableEEEEEE
_ZN6vendor6google5media2c24V1_014implementation9Component21connectToInputSurfaceERKN7android2spINS3_13IInputSurfaceEEE
_ZN6vendor6google5media2c24V1_014implementation9Component24connectToOmxInputSurfaceERKN7android2spINS6_8hardware8graphics11bufferqueue4V1_022IGraphicBufferProducerEEERKNS7_INS8_5media3omx4V1_020IGraphicBufferSourceEEE
_ZN6vendor6google5media2c24V1_014implementation9Component26disconnectFromInputSurfaceEv
_ZN6vendor6google5media2c24V1_014implementation9Component4stopEv
_ZN6vendor6google5media2c24V1_014implementation9Component5drainEb
_ZN6vendor6google5media2c24V1_014implementation9Component5flushENSt3__18functionIFvNS3_6StatusERKNS3_10WorkBundleEEEE
_ZN6vendor6google5media2c24V1_014implementation9Component5queueERKNS3_10WorkBundleE
_ZN6vendor6google5media2c24V1_014implementation9Component5resetEv
_ZN6vendor6google5media2c24V1_014implementation9Component5startEv
_ZN6vendor6google5media2c24V1_014implementation9Component7releaseEv
_ZN6vendor6google5media2c24V1_014implementation9ComponentC1ERKNSt3__110shared_ptrI11C2ComponentEERKN7android2spINS3_18IComponentListenerEEERKNSD_INS4_14ComponentStoreEEE
_ZN6vendor6google5media2c24V1_014implementation9ComponentC2ERKNSt3__110shared_ptrI11C2ComponentEERKN7android2spINS3_18IComponentListenerEEERKNSD_INS4_14ComponentStoreEEE
_ZNK6vendor6google5media2c24V1_014implementation18ComponentInterface6statusEv
_ZTCN6vendor6google5media2c24V1_014implementation14ComponentStoreE0_N7android4hidl4base4V1_05IBaseE
_ZTCN6vendor6google5media2c24V1_014implementation14ComponentStoreE0_NS3_13IConfigurableE
_ZTCN6vendor6google5media2c24V1_014implementation14ComponentStoreE0_NS3_15IComponentStoreE
_ZTCN6vendor6google5media2c24V1_014implementation14ComponentStoreE0_NS4_12ConfigurableINS3_15IComponentStoreEEE
_ZTCN6vendor6google5media2c24V1_014implementation18CachedConfigurableE0_N7android4hidl4base4V1_05IBaseE
_ZTCN6vendor6google5media2c24V1_014implementation18CachedConfigurableE0_NS3_13IConfigurableE
_ZTCN6vendor6google5media2c24V1_014implementation9ComponentE0_N7android4hidl4base4V1_05IBaseE
_ZTCN6vendor6google5media2c24V1_014implementation9ComponentE0_NS3_10IComponentE
_ZTCN6vendor6google5media2c24V1_014implementation9ComponentE0_NS3_13IConfigurableE
_ZTCN6vendor6google5media2c24V1_014implementation9ComponentE0_NS3_19IComponentInterfaceE
_ZTCN6vendor6google5media2c24V1_014implementation9ComponentE0_NS4_12ConfigurableINS3_10IComponentEEE
_ZTTN6vendor6google5media2c24V1_014implementation14ComponentStoreE
_ZTTN6vendor6google5media2c24V1_014implementation18CachedConfigurableE
_ZTTN6vendor6google5media2c24V1_014implementation9ComponentE
_ZTVN6vendor6google5media2c24V1_014implementation14ComponentStoreE
_ZTVN6vendor6google5media2c24V1_014implementation18CachedConfigurableE
_ZTVN6vendor6google5media2c24V1_014implementation9ComponentE
