_ZN10C2ReadViewC1E11c2_status_t
_ZN10C2ReadViewC1ENSt3__110shared_ptrINS_4ImplEEEjj
_ZN10C2ReadViewC2E11c2_status_t
_ZN10C2ReadViewC2ENSt3__110shared_ptrINS_4ImplEEEjj
_ZN11C2WriteView4baseEv
_ZN11C2WriteView4dataEv
_ZN11C2WriteViewC1E11c2_status_t
_ZN11C2WriteViewC1ENSt3__110shared_ptrINS_4ImplEEE
_ZN11C2WriteViewC2E11c2_status_t
_ZN11C2WriteViewC2ENSt3__110shared_ptrINS_4ImplEEE
_ZN12C2BufferDataC1ERKNSt3__16vectorI18C2ConstLinearBlockNS0_9allocatorIS2_EEEE
_ZN12C2BufferDataC1ERKNSt3__16vectorI19C2ConstGraphicBlockNS0_9allocatorIS2_EEEE
_ZN12C2BufferDataC2ERKNSt3__16vectorI18C2ConstLinearBlockNS0_9allocatorIS2_EEEE
_ZN12C2BufferDataC2ERKNSt3__16vectorI19C2ConstGraphicBlockNS0_9allocatorIS2_EEEE
_ZN13C2GraphicView4dataEv
_ZN13C2GraphicView7subViewERK6C2Rect
_ZN13C2GraphicViewC1ENSt3__110shared_ptrINS_4ImplEEERK22_C2PlanarSectionAspect
_ZN13C2GraphicViewC2ENSt3__110shared_ptrINS_4ImplEEERK22_C2PlanarSectionAspect
_ZN13C2LinearBlock3mapEv
_ZN13C2LinearBlock5shareEmm7C2Fence
_ZN13C2LinearBlockC1ENSt3__110shared_ptrIN9C2Block1D4ImplEEERK20_C2LinearRangeAspect
_ZN13C2LinearBlockC2ENSt3__110shared_ptrIN9C2Block1D4ImplEEERK20_C2LinearRangeAspect
_ZN14C2GraphicBlock3mapEv
_ZN14C2GraphicBlock5shareERK6C2Rect7C2Fence
_ZN14C2GraphicBlockC1ENSt3__110shared_ptrIN9C2Block2D4ImplEEERK22_C2PlanarSectionAspect
_ZN14C2GraphicBlockC2ENSt3__110shared_ptrIN9C2Block2D4ImplEEERK22_C2PlanarSectionAspect
_ZN15_C2BlockFactory18CreateGraphicBlockERKNSt3__110shared_ptrI19C2GraphicAllocationEERKNS1_I16_C2BlockPoolDataEERK6C2Rect
_ZN17C2VideoSizeStruct10FIELD_LISTE
_ZN18C2ConstLinearBlockC1ENSt3__110shared_ptrIN9C2Block1D4ImplEEERK20_C2LinearRangeAspect7C2Fence
_ZN18C2ConstLinearBlockC2ENSt3__110shared_ptrIN9C2Block1D4ImplEEERK20_C2LinearRangeAspect7C2Fence
_ZN19C2ConstGraphicBlockC1ENSt3__110shared_ptrIN9C2Block2D4ImplEEERK22_C2PlanarSectionAspect7C2Fence
_ZN19C2ConstGraphicBlockC2ENSt3__110shared_ptrIN9C2Block2D4ImplEEERK22_C2PlanarSectionAspect7C2Fence
_ZN22C2BasicLinearBlockPool16fetchLinearBlockEj13C2MemoryUsagePNSt3__110shared_ptrI13C2LinearBlockEE
_ZN22C2BasicLinearBlockPoolC1ERKNSt3__110shared_ptrI11C2AllocatorEE
_ZN22C2BasicLinearBlockPoolC2ERKNSt3__110shared_ptrI11C2AllocatorEE
_ZN23C2BasicGraphicBlockPool17fetchGraphicBlockEjjj13C2MemoryUsagePNSt3__110shared_ptrI14C2GraphicBlockEE
_ZN23C2BasicGraphicBlockPoolC1ERKNSt3__110shared_ptrI11C2AllocatorEE
_ZN23C2BasicGraphicBlockPoolC2ERKNSt3__110shared_ptrI11C2AllocatorEE
_ZN7android11C2HandleIon7cHeaderE
_ZN7android11C2HandleIon7isValidEPK13native_handle
_ZN7android14C2AllocatorIon19newLinearAllocationEj13C2MemoryUsagePNSt3__110shared_ptrI18C2LinearAllocationEE
_ZN7android14C2AllocatorIon21priorLinearAllocationEPK13native_handlePNSt3__110shared_ptrI18C2LinearAllocationEE
_ZN7android14C2AllocatorIonC1Ej
_ZN7android14C2AllocatorIonC2Ej
_ZN7android14C2AllocatorIonD0Ev
_ZN7android14C2AllocatorIonD1Ev
_ZN7android14C2AllocatorIonD2Ev
_ZN7android15C2AllocationIon3mapEmm13C2MemoryUsagePiPPv
_ZN7android15C2AllocationIon5unmapEPvmPi
_ZN7android15C2AllocationIonC1Eimij
_ZN7android15C2AllocationIonC1Eimmjjj
_ZN7android15C2AllocationIonC2Eimij
_ZN7android15C2AllocationIonC2Eimmjjj
_ZN7android15C2AllocationIonD0Ev
_ZN7android15C2AllocationIonD1Ev
_ZN7android15C2AllocationIonD2Ev
_ZN7android18C2AllocatorGralloc20newGraphicAllocationEjjj13C2MemoryUsagePNSt3__110shared_ptrI19C2GraphicAllocationEE
_ZN7android18C2AllocatorGralloc22priorGraphicAllocationEPK13native_handlePNSt3__110shared_ptrI19C2GraphicAllocationEE
_ZN7android18C2AllocatorGralloc4Impl20newGraphicAllocationEjjjRK13C2MemoryUsagePNSt3__110shared_ptrI19C2GraphicAllocationEE
_ZN7android18C2AllocatorGralloc4Impl22priorGraphicAllocationEPK13native_handlePNSt3__110shared_ptrI19C2GraphicAllocationEE
_ZN7android18C2AllocatorGralloc4ImplC1Ej
_ZN7android18C2AllocatorGralloc4ImplC2Ej
_ZN7android18C2AllocatorGrallocC1Ej
_ZN7android18C2AllocatorGrallocC2Ej
_ZN7android18C2AllocatorGrallocD0Ev
_ZN7android18C2AllocatorGrallocD1Ev
_ZN7android18C2AllocatorGrallocD2Ev
_ZN7android18GetCodec2BlockPoolEmNSt3__110shared_ptrIK11C2ComponentEEPNS1_I11C2BlockPoolEE
_ZN7android19C2AllocationGralloc3mapE6C2Rect13C2MemoryUsagePiP14C2PlanarLayoutPPh
_ZN7android19C2AllocationGralloc5unmapEP7C2Fence
_ZN7android19C2AllocationGrallocD0Ev
_ZN7android19C2AllocationGrallocD1Ev
_ZN7android19C2AllocationGrallocD2Ev
_ZN7android20C2AndroidMemoryUsage16FromGrallocUsageEm
_ZN7android24C2PlatformComponentStore10copyBufferENSt3__110shared_ptrI15C2GraphicBufferEES4_
_ZN7android24C2PlatformComponentStore13findComponentENSt3__112basic_stringIcNS1_11char_traitsIcEENS1_9allocatorIcEEEEPPNS0_15ComponentLoaderE
_ZN7android24C2PlatformComponentStore14listComponentsEv
_ZN7android24C2PlatformComponentStore15ComponentModule15createComponentEjPNSt3__110shared_ptrI11C2ComponentEENS2_8functionIFvPS4_EEE
_ZN7android24C2PlatformComponentStore15ComponentModule15createInterfaceEjPNSt3__110shared_ptrI20C2ComponentInterfaceEENS2_8functionIFvPS4_EEE
_ZN7android24C2PlatformComponentStore15ComponentModule4initENSt3__112basic_stringIcNS2_11char_traitsIcEENS2_9allocatorIcEEEE
_ZN7android24C2PlatformComponentStore15ComponentModule9getTraitsEv
_ZN7android24C2PlatformComponentStore15ComponentModuleD0Ev
_ZN7android24C2PlatformComponentStore15ComponentModuleD1Ev
_ZN7android24C2PlatformComponentStore15ComponentModuleD2Ev
_ZN7android24C2PlatformComponentStore15createComponentENSt3__112basic_stringIcNS1_11char_traitsIcEENS1_9allocatorIcEEEEPNS1_10shared_ptrI11C2ComponentEE
_ZN7android24C2PlatformComponentStore15createInterfaceENSt3__112basic_stringIcNS1_11char_traitsIcEENS1_9allocatorIcEEEEPNS1_10shared_ptrI20C2ComponentInterfaceEE
_ZN7android24C2PlatformComponentStore9config_smERKNSt3__16vectorIP7C2ParamNS1_9allocatorIS4_EEEEPNS2_INS1_10unique_ptrI15C2SettingResultNS1_14default_deleteISB_EEEENS5_ISE_EEEE
_ZN7android24C2PlatformComponentStoreC1Ev
_ZN7android24C2PlatformComponentStoreC2Ev
_ZN7android28C2PlatformAllocatorStoreImpl14fetchAllocatorEjPNSt3__110shared_ptrI11C2AllocatorEE
_ZN7android28C2PlatformAllocatorStoreImpl17fetchIonAllocatorEv
_ZN7android28C2PlatformAllocatorStoreImpl21fetchGrallocAllocatorEv
_ZN7android28C2PlatformAllocatorStoreImplC1Ev
_ZN7android28C2PlatformAllocatorStoreImplC2Ev
_ZN7android29WrapNativeCodec2GrallocHandleEPK13native_handlejjjmj
_ZN7android31GetCodec2PlatformAllocatorStoreEv
_ZN7android31GetCodec2PlatformComponentStoreEv
_ZN7android31UnwrapNativeCodec2GrallocHandleEPK13native_handle
_ZN8C2Buffer10removeInfoEN7C2Param4TypeE
_ZN8C2Buffer18CreateLinearBufferERK18C2ConstLinearBlock
_ZN8C2Buffer19CreateGraphicBufferERK19C2ConstGraphicBlock
_ZN8C2Buffer23registerOnDestroyNotifyEPFvPKS_PvES2_
_ZN8C2Buffer25unregisterOnDestroyNotifyEPFvPKS_PvES2_
_ZN8C2Buffer7setInfoERKNSt3__110shared_ptrI6C2InfoEE
_ZN8C2BufferC1ERKNSt3__16vectorI18C2ConstLinearBlockNS0_9allocatorIS2_EEEE
_ZN8C2BufferC1ERKNSt3__16vectorI19C2ConstGraphicBlockNS0_9allocatorIS2_EEEE
_ZN8C2BufferC2ERKNSt3__16vectorI18C2ConstLinearBlockNS0_9allocatorIS2_EEEE
_ZN8C2BufferC2ERKNSt3__16vectorI19C2ConstGraphicBlockNS0_9allocatorIS2_EEEE
_ZN9C2Block1DC1ENSt3__110shared_ptrINS_4ImplEEERK20_C2LinearRangeAspect
_ZN9C2Block1DC2ENSt3__110shared_ptrINS_4ImplEEERK20_C2LinearRangeAspect
_ZN9C2Block2DC1ENSt3__110shared_ptrINS_4ImplEEERK22_C2PlanarSectionAspect
_ZN9C2Block2DC2ENSt3__110shared_ptrINS_4ImplEEERK22_C2PlanarSectionAspect
_ZNK10C2ReadView4dataEv
_ZNK10C2ReadView5errorEv
_ZNK10C2ReadView7subViewEmm
_ZNK11C2WriteView5errorEv
_ZNK12C2BufferData12linearBlocksEv
_ZNK12C2BufferData13graphicBlocksEv
_ZNK12C2BufferData4typeEv
_ZNK13C2GraphicView4dataEv
_ZNK13C2GraphicView5errorEv
_ZNK13C2GraphicView6layoutEv
_ZNK13C2GraphicView7subViewERK6C2Rect
_ZNK18C2ConstLinearBlock3mapEv
_ZNK18C2ConstLinearBlock8subBlockEmm
_ZNK19C2ConstGraphicBlock3mapEv
_ZNK19C2ConstGraphicBlock8subBlockERK6C2Rect
_ZNK7android14C2AllocatorIon5getIdEv
_ZNK7android14C2AllocatorIon7getNameEv
_ZNK7android14C2AllocatorIon9getTraitsEv
_ZNK7android15C2AllocationIon14getAllocatorIdEv
_ZNK7android15C2AllocationIon6equalsERKNSt3__110shared_ptrI18C2LinearAllocationEE
_ZNK7android15C2AllocationIon6handleEv
_ZNK7android15C2AllocationIon6statusEv
_ZNK7android18C2AllocatorGralloc5getIdEv
_ZNK7android18C2AllocatorGralloc6statusEv
_ZNK7android18C2AllocatorGralloc7getNameEv
_ZNK7android18C2AllocatorGralloc9getTraitsEv
_ZNK7android19C2AllocationGralloc6equalsERKNSt3__110shared_ptrIK19C2GraphicAllocationEE
_ZNK7android20C2AndroidMemoryUsage14asGrallocUsageEv
_ZNK7android24C2PlatformComponentStore17getParamReflectorEv
_ZNK7android24C2PlatformComponentStore23querySupportedParams_nbEPNSt3__16vectorINS1_10shared_ptrI17C2ParamDescriptorEENS1_9allocatorIS5_EEEE
_ZNK7android24C2PlatformComponentStore23querySupportedValues_smERNSt3__16vectorI27C2FieldSupportedValuesQueryNS1_9allocatorIS3_EEEE
_ZNK7android24C2PlatformComponentStore7getNameEv
_ZNK7android24C2PlatformComponentStore8query_smERKNSt3__16vectorIP7C2ParamNS1_9allocatorIS4_EEEERKNS2_INS3_5IndexENS5_ISA_EEEEPNS2_INS1_10unique_ptrIS3_NS1_14default_deleteIS3_EEEENS5_ISI_EEEE
_ZNK8C2Buffer4dataEv
_ZNK8C2Buffer4infoEv
_ZNK8C2Buffer7hasInfoEN7C2Param4TypeE
_ZNK9C2Block1D14getAllocatorIdEv
_ZNK9C2Block1D6handleEv
_ZNK9C2Block2D14getAllocatorIdEv
_ZNK9C2Block2D6handleEv
_ZTV22C2BasicLinearBlockPool
_ZTV23C2BasicGraphicBlockPool
_ZTVN7android14C2AllocatorIonE
_ZTVN7android15C2AllocationIonE
_ZTVN7android18C2AllocatorGrallocE
_ZTVN7android19C2AllocationGrallocE
_ZTVN7android24C2PlatformComponentStore15ComponentModuleE
_ZTVN7android24C2PlatformComponentStoreE
_ZTVN7android28C2PlatformAllocatorStoreImplE
