_ZN7android8hardware5media10bufferpool4V1_014implementation10Connection10initializeERKNS_2spINS4_8AccessorEEEl
_ZN7android8hardware5media10bufferpool4V1_014implementation10Connection5fetchEmjNSt3__18functionIFvNS3_12ResultStatusERKNS3_6BufferEEEE
_ZN7android8hardware5media10bufferpool4V1_014implementation10Connection8allocateERKNSt3__16vectorIhNS6_9allocatorIhEEEEPjPPK13native_handle
_ZN7android8hardware5media10bufferpool4V1_014implementation10ConnectionC1Ev
_ZN7android8hardware5media10bufferpool4V1_014implementation10ConnectionC2Ev
_ZN7android8hardware5media10bufferpool4V1_014implementation10ConnectionD0Ev
_ZN7android8hardware5media10bufferpool4V1_014implementation10ConnectionD1Ev
_ZN7android8hardware5media10bufferpool4V1_014implementation10ConnectionD2Ev
_ZN7android8hardware5media10bufferpool4V1_014implementation13ClientManager11getAccessorElPNS_2spINS3_9IAccessorEEE
_ZN7android8hardware5media10bufferpool4V1_014implementation13ClientManager11getInstanceEv
_ZN7android8hardware5media10bufferpool4V1_014implementation13ClientManager13sInstanceLockE
_ZN7android8hardware5media10bufferpool4V1_014implementation13ClientManager14registerSenderERKNS_2spINS3_9IAccessorEEENSt3__18functionIFvNS3_12ResultStatusElEEE
_ZN7android8hardware5media10bufferpool4V1_014implementation13ClientManager4Impl11getAccessorElPNS_2spINS3_9IAccessorEEE
_ZN7android8hardware5media10bufferpool4V1_014implementation13ClientManager4Impl14registerSenderERKNS_2spINS3_9IAccessorEEEPl
_ZN7android8hardware5media10bufferpool4V1_014implementation13ClientManager4Impl5closeEl
_ZN7android8hardware5media10bufferpool4V1_014implementation13ClientManager4Impl6createERKNSt3__110shared_ptrINS4_19BufferPoolAllocatorEEEPl
_ZN7android8hardware5media10bufferpool4V1_014implementation13ClientManager4Impl7receiveElmjlPNSt3__110shared_ptrI16_C2BlockPoolDataEE
_ZN7android8hardware5media10bufferpool4V1_014implementation13ClientManager4Impl8allocateElRKNSt3__16vectorIhNS7_9allocatorIhEEEEPNS7_10shared_ptrI16_C2BlockPoolDataEE
_ZN7android8hardware5media10bufferpool4V1_014implementation13ClientManager4Impl8postSendEllRKNSt3__110shared_ptrI16_C2BlockPoolDataEEPmPl
_ZN7android8hardware5media10bufferpool4V1_014implementation13ClientManager4ImplC1Ev
_ZN7android8hardware5media10bufferpool4V1_014implementation13ClientManager4ImplC2Ev
_ZN7android8hardware5media10bufferpool4V1_014implementation13ClientManager5closeEl
_ZN7android8hardware5media10bufferpool4V1_014implementation13ClientManager6createERKNSt3__110shared_ptrINS4_19BufferPoolAllocatorEEEPl
_ZN7android8hardware5media10bufferpool4V1_014implementation13ClientManager7receiveElmjlPNSt3__110shared_ptrI16_C2BlockPoolDataEE
_ZN7android8hardware5media10bufferpool4V1_014implementation13ClientManager8allocateElRKNSt3__16vectorIhNS6_9allocatorIhEEEEPNS6_10shared_ptrI16_C2BlockPoolDataEE
_ZN7android8hardware5media10bufferpool4V1_014implementation13ClientManager8postSendEllRKNSt3__110shared_ptrI16_C2BlockPoolDataEEPmPl
_ZN7android8hardware5media10bufferpool4V1_014implementation13ClientManager9sInstanceE
_ZN7android8hardware5media10bufferpool4V1_014implementation13ClientManagerC1Ev
_ZN7android8hardware5media10bufferpool4V1_014implementation13ClientManagerC2Ev
_ZN7android8hardware5media10bufferpool4V1_014implementation13ClientManagerD0Ev
_ZN7android8hardware5media10bufferpool4V1_014implementation13ClientManagerD1Ev
_ZN7android8hardware5media10bufferpool4V1_014implementation13ClientManagerD2Ev
_ZN7android8hardware5media10bufferpool4V1_014implementation15getTimestampNowEv
_ZN7android8hardware5media10bufferpool4V1_014implementation16BufferPoolClient11getAccessorEPNS_2spINS3_9IAccessorEEE
_ZN7android8hardware5media10bufferpool4V1_014implementation16BufferPoolClient15getConnectionIdEv
_ZN7android8hardware5media10bufferpool4V1_014implementation16BufferPoolClient4Impl11postReceiveEjml
_ZN7android8hardware5media10bufferpool4V1_014implementation16BufferPoolClient4Impl12syncReleasedEv
_ZN7android8hardware5media10bufferpool4V1_014implementation16BufferPoolClient4Impl17fetchBufferHandleEmjPP13native_handle
_ZN7android8hardware5media10bufferpool4V1_014implementation16BufferPoolClient4Impl17postBufferReleaseEj
_ZN7android8hardware5media10bufferpool4V1_014implementation16BufferPoolClient4Impl17postReceiveResultEjmb
_ZN7android8hardware5media10bufferpool4V1_014implementation16BufferPoolClient4Impl20allocateBufferHandleERKNSt3__16vectorIhNS7_9allocatorIhEEEEPjPP13native_handle
_ZN7android8hardware5media10bufferpool4V1_014implementation16BufferPoolClient4Impl7receiveEmjlPNSt3__110shared_ptrI16_C2BlockPoolDataEE
_ZN7android8hardware5media10bufferpool4V1_014implementation16BufferPoolClient4Impl8allocateERKNSt3__16vectorIhNS7_9allocatorIhEEEEPNS7_10shared_ptrI16_C2BlockPoolDataEE
_ZN7android8hardware5media10bufferpool4V1_014implementation16BufferPoolClient4Impl8postSendEjlPmPl
_ZN7android8hardware5media10bufferpool4V1_014implementation16BufferPoolClient4ImplC1ERKNS_2spINS3_9IAccessorEEE
_ZN7android8hardware5media10bufferpool4V1_014implementation16BufferPoolClient4ImplC1ERKNS_2spINS4_8AccessorEEE
_ZN7android8hardware5media10bufferpool4V1_014implementation16BufferPoolClient4ImplC2ERKNS_2spINS3_9IAccessorEEE
_ZN7android8hardware5media10bufferpool4V1_014implementation16BufferPoolClient4ImplC2ERKNS_2spINS4_8AccessorEEE
_ZN7android8hardware5media10bufferpool4V1_014implementation16BufferPoolClient7isValidEv
_ZN7android8hardware5media10bufferpool4V1_014implementation16BufferPoolClient7receiveEmjlPNSt3__110shared_ptrI16_C2BlockPoolDataEE
_ZN7android8hardware5media10bufferpool4V1_014implementation16BufferPoolClient8allocateERKNSt3__16vectorIhNS6_9allocatorIhEEEEPNS6_10shared_ptrI16_C2BlockPoolDataEE
_ZN7android8hardware5media10bufferpool4V1_014implementation16BufferPoolClient8postSendElRKNSt3__110shared_ptrI16_C2BlockPoolDataEEPmPl
_ZN7android8hardware5media10bufferpool4V1_014implementation16BufferPoolClientC1ERKNS_2spINS3_9IAccessorEEE
_ZN7android8hardware5media10bufferpool4V1_014implementation16BufferPoolClientC1ERKNS_2spINS4_8AccessorEEE
_ZN7android8hardware5media10bufferpool4V1_014implementation16BufferPoolClientC2ERKNS_2spINS3_9IAccessorEEE
_ZN7android8hardware5media10bufferpool4V1_014implementation16BufferPoolClientC2ERKNS_2spINS4_8AccessorEEE
_ZN7android8hardware5media10bufferpool4V1_014implementation16BufferPoolClientD1Ev
_ZN7android8hardware5media10bufferpool4V1_014implementation16BufferPoolClientD2Ev
_ZN7android8hardware5media10bufferpool4V1_014implementation19BufferStatusChannel17postBufferReleaseElRNSt3__14listIjNS6_9allocatorIjEEEESB_
_ZN7android8hardware5media10bufferpool4V1_014implementation19BufferStatusChannel23postBufferStatusMessageEmjNS3_12BufferStatusEllRNSt3__14listIjNS7_9allocatorIjEEEESC_
_ZN7android8hardware5media10bufferpool4V1_014implementation19BufferStatusChannel7isValidEv
_ZN7android8hardware5media10bufferpool4V1_014implementation19BufferStatusChannelC1ERKNS0_12MQDescriptorINS3_19BufferStatusMessageELNS0_8MQFlavorE1EEE
_ZN7android8hardware5media10bufferpool4V1_014implementation19BufferStatusChannelC2ERKNS0_12MQDescriptorINS3_19BufferStatusMessageELNS0_8MQFlavorE1EEE
_ZN7android8hardware5media10bufferpool4V1_014implementation20BufferStatusObserver22getBufferStatusChangesERNSt3__16vectorINS3_19BufferStatusMessageENS6_9allocatorIS8_EEEE
_ZN7android8hardware5media10bufferpool4V1_014implementation20BufferStatusObserver4openElPPKNS0_12MQDescriptorINS3_19BufferStatusMessageELNS0_8MQFlavorE1EEE
_ZN7android8hardware5media10bufferpool4V1_014implementation20BufferStatusObserver5closeEl
_ZN7android8hardware5media10bufferpool4V1_014implementation8Accessor4Impl10BufferPool11handleCloseEl
_ZN7android8hardware5media10bufferpool4V1_014implementation8Accessor4Impl10BufferPool12getNewBufferERKNSt3__110shared_ptrINS4_19BufferPoolAllocatorEEERKNS8_6vectorIhNS8_9allocatorIhEEEEPjPPK13native_handle
_ZN7android8hardware5media10bufferpool4V1_014implementation8Accessor4Impl10BufferPool13getFreeBufferERKNSt3__110shared_ptrINS4_19BufferPoolAllocatorEEERKNS8_6vectorIhNS8_9allocatorIhEEEEPjPPK13native_handle
_ZN7android8hardware5media10bufferpool4V1_014implementation8Accessor4Impl10BufferPool15handleOwnBufferElj
_ZN7android8hardware5media10bufferpool4V1_014implementation8Accessor4Impl10BufferPool16handleTransferToERKNS3_19BufferStatusMessageE
_ZN7android8hardware5media10bufferpool4V1_014implementation8Accessor4Impl10BufferPool18handleTransferFromERKNS3_19BufferStatusMessageE
_ZN7android8hardware5media10bufferpool4V1_014implementation8Accessor4Impl10BufferPool19handleReleaseBufferElj
_ZN7android8hardware5media10bufferpool4V1_014implementation8Accessor4Impl10BufferPool20handleTransferResultERKNS3_19BufferStatusMessageE
_ZN7android8hardware5media10bufferpool4V1_014implementation8Accessor4Impl10BufferPool21processStatusMessagesEv
_ZN7android8hardware5media10bufferpool4V1_014implementation8Accessor4Impl10BufferPoolC1Ev
_ZN7android8hardware5media10bufferpool4V1_014implementation8Accessor4Impl10BufferPoolC2Ev
_ZN7android8hardware5media10bufferpool4V1_014implementation8Accessor4Impl4sPidE
_ZN7android8hardware5media10bufferpool4V1_014implementation8Accessor4Impl4syncEv
_ZN7android8hardware5media10bufferpool4V1_014implementation8Accessor4Impl5closeEl
_ZN7android8hardware5media10bufferpool4V1_014implementation8Accessor4Impl5fetchElmjPPK13native_handle
_ZN7android8hardware5media10bufferpool4V1_014implementation8Accessor4Impl6sSeqIdE
_ZN7android8hardware5media10bufferpool4V1_014implementation8Accessor4Impl7connectERKNS_2spIS5_EEPNS7_INS4_10ConnectionEEEPlPPKNS0_12MQDescriptorINS3_19BufferStatusMessageELNS0_8MQFlavorE1EEE
_ZN7android8hardware5media10bufferpool4V1_014implementation8Accessor4Impl8allocateElRKNSt3__16vectorIhNS7_9allocatorIhEEEEPjPPK13native_handle
_ZN7android8hardware5media10bufferpool4V1_014implementation8Accessor4ImplC1ERKNSt3__110shared_ptrINS4_19BufferPoolAllocatorEEE
_ZN7android8hardware5media10bufferpool4V1_014implementation8Accessor4ImplC2ERKNSt3__110shared_ptrINS4_19BufferPoolAllocatorEEE
_ZN7android8hardware5media10bufferpool4V1_014implementation8Accessor4ImplD1Ev
_ZN7android8hardware5media10bufferpool4V1_014implementation8Accessor4ImplD2Ev
_ZN7android8hardware5media10bufferpool4V1_014implementation8Accessor5closeEl
_ZN7android8hardware5media10bufferpool4V1_014implementation8Accessor5fetchElmjPPK13native_handle
_ZN7android8hardware5media10bufferpool4V1_014implementation8Accessor7connectENSt3__18functionIFvNS3_12ResultStatusERKNS_2spINS3_11IConnectionEEElRKNS0_12MQDescriptorINS3_19BufferStatusMessageELNS0_8MQFlavorE1EEEEEE
_ZN7android8hardware5media10bufferpool4V1_014implementation8Accessor7connectEPNS_2spINS4_10ConnectionEEEPlPPKNS0_12MQDescriptorINS3_19BufferStatusMessageELNS0_8MQFlavorE1EEE
_ZN7android8hardware5media10bufferpool4V1_014implementation8Accessor7isValidEv
_ZN7android8hardware5media10bufferpool4V1_014implementation8Accessor8allocateElRKNSt3__16vectorIhNS6_9allocatorIhEEEEPjPPK13native_handle
_ZN7android8hardware5media10bufferpool4V1_014implementation8AccessorC1ERKNSt3__110shared_ptrINS4_19BufferPoolAllocatorEEE
_ZN7android8hardware5media10bufferpool4V1_014implementation8AccessorC2ERKNSt3__110shared_ptrINS4_19BufferPoolAllocatorEEE
_ZN7android8hardware5media10bufferpool4V1_014implementation8AccessorD0Ev
_ZN7android8hardware5media10bufferpool4V1_014implementation8AccessorD1Ev
_ZN7android8hardware5media10bufferpool4V1_014implementation8AccessorD2Ev
_ZTCN7android8hardware5media10bufferpool4V1_014implementation10ConnectionE0_NS3_11IConnectionE
_ZTCN7android8hardware5media10bufferpool4V1_014implementation10ConnectionE0_NS_4hidl4base4V1_05IBaseE
_ZTCN7android8hardware5media10bufferpool4V1_014implementation13ClientManagerE0_NS3_14IClientManagerE
_ZTCN7android8hardware5media10bufferpool4V1_014implementation13ClientManagerE0_NS_4hidl4base4V1_05IBaseE
_ZTCN7android8hardware5media10bufferpool4V1_014implementation8AccessorE0_NS3_9IAccessorE
_ZTCN7android8hardware5media10bufferpool4V1_014implementation8AccessorE0_NS_4hidl4base4V1_05IBaseE
_ZTTN7android8hardware5media10bufferpool4V1_014implementation10ConnectionE
_ZTTN7android8hardware5media10bufferpool4V1_014implementation13ClientManagerE
_ZTTN7android8hardware5media10bufferpool4V1_014implementation8AccessorE
_ZTVN7android8hardware5media10bufferpool4V1_014implementation10ConnectionE
_ZTVN7android8hardware5media10bufferpool4V1_014implementation13ClientManagerE
_ZTVN7android8hardware5media10bufferpool4V1_014implementation8AccessorE
_ZTv0_n24_N7android8hardware5media10bufferpool4V1_014implementation10ConnectionD0Ev
_ZTv0_n24_N7android8hardware5media10bufferpool4V1_014implementation10ConnectionD1Ev
_ZTv0_n24_N7android8hardware5media10bufferpool4V1_014implementation13ClientManagerD0Ev
_ZTv0_n24_N7android8hardware5media10bufferpool4V1_014implementation13ClientManagerD1Ev
_ZTv0_n24_N7android8hardware5media10bufferpool4V1_014implementation8AccessorD0Ev
_ZTv0_n24_N7android8hardware5media10bufferpool4V1_014implementation8AccessorD1Ev
