_ZN6vendor6google5media2c24V1_010IComponent10descriptorE
_ZN6vendor6google5media2c24V1_010IComponent10getServiceERKNSt3__112basic_stringIcNS5_11char_traitsIcEENS5_9allocatorIcEEEEb
_ZN6vendor6google5media2c24V1_010IComponent11linkToDeathERKN7android2spINS5_8hardware20hidl_death_recipientEEEm
_ZN6vendor6google5media2c24V1_010IComponent12getDebugInfoENSt3__18functionIFvRKN7android4hidl4base4V1_09DebugInfoEEEE
_ZN6vendor6google5media2c24V1_010IComponent12getHashChainENSt3__18functionIFvRKN7android8hardware8hidl_vecINS8_10hidl_arrayIhLm32EJEEEEEEEE
_ZN6vendor6google5media2c24V1_010IComponent13tryGetServiceERKNSt3__112basic_stringIcNS5_11char_traitsIcEENS5_9allocatorIcEEEEb
_ZN6vendor6google5media2c24V1_010IComponent13unlinkToDeathERKN7android2spINS5_8hardware20hidl_death_recipientEEE
_ZN6vendor6google5media2c24V1_010IComponent14interfaceChainENSt3__18functionIFvRKN7android8hardware8hidl_vecINS8_11hidl_stringEEEEEE
_ZN6vendor6google5media2c24V1_010IComponent17registerAsServiceERKNSt3__112basic_stringIcNS5_11char_traitsIcEENS5_9allocatorIcEEEE
_ZN6vendor6google5media2c24V1_010IComponent19interfaceDescriptorENSt3__18functionIFvRKN7android8hardware11hidl_stringEEEE
_ZN6vendor6google5media2c24V1_010IComponent21notifySyspropsChangedEv
_ZN6vendor6google5media2c24V1_010IComponent21setHALInstrumentationEv
_ZN6vendor6google5media2c24V1_010IComponent24registerForNotificationsERKNSt3__112basic_stringIcNS5_11char_traitsIcEENS5_9allocatorIcEEEERKN7android2spINSE_4hidl7manager4V1_020IServiceNotificationEEE
_ZN6vendor6google5media2c24V1_010IComponent4pingEv
_ZN6vendor6google5media2c24V1_010IComponent5debugERKN7android8hardware11hidl_handleERKNS6_8hidl_vecINS6_11hidl_stringEEE
_ZN6vendor6google5media2c24V1_010IComponent8castFromERKN7android2spINS3_13IConfigurableEEEb
_ZN6vendor6google5media2c24V1_010IComponent8castFromERKN7android2spINS3_19IComponentInterfaceEEEb
_ZN6vendor6google5media2c24V1_010IComponent8castFromERKN7android2spINS5_4hidl4base4V1_05IBaseEEEb
_ZN6vendor6google5media2c24V1_010IComponent8castFromERKN7android2spIS4_EEb
_ZN6vendor6google5media2c24V1_011BsComponent13addOnewayTaskENSt3__18functionIFvvEEE
_ZN6vendor6google5media2c24V1_011BsComponentC1EN7android2spINS3_10IComponentEEE
_ZN6vendor6google5media2c24V1_011BsComponentC2EN7android2spINS3_10IComponentEEE
_ZN6vendor6google5media2c24V1_013BnHwComponent10_hidl_stopEPN7android4hidl4base4V1_08BnHwBaseERKNS5_8hardware6ParcelEPSC_NSt3__18functionIFvRSC_EEE
_ZN6vendor6google5media2c24V1_013BnHwComponent10onTransactEjRKN7android8hardware6ParcelEPS7_jNSt3__18functionIFvRS7_EEE
_ZN6vendor6google5media2c24V1_013BnHwComponent11_hidl_drainEPN7android4hidl4base4V1_08BnHwBaseERKNS5_8hardware6ParcelEPSC_NSt3__18functionIFvRSC_EEE
_ZN6vendor6google5media2c24V1_013BnHwComponent11_hidl_flushEPN7android4hidl4base4V1_08BnHwBaseERKNS5_8hardware6ParcelEPSC_NSt3__18functionIFvRSC_EEE
_ZN6vendor6google5media2c24V1_013BnHwComponent11_hidl_queueEPN7android4hidl4base4V1_08BnHwBaseERKNS5_8hardware6ParcelEPSC_NSt3__18functionIFvRSC_EEE
_ZN6vendor6google5media2c24V1_013BnHwComponent11_hidl_resetEPN7android4hidl4base4V1_08BnHwBaseERKNS5_8hardware6ParcelEPSC_NSt3__18functionIFvRSC_EEE
_ZN6vendor6google5media2c24V1_013BnHwComponent11_hidl_startEPN7android4hidl4base4V1_08BnHwBaseERKNS5_8hardware6ParcelEPSC_NSt3__18functionIFvRSC_EEE
_ZN6vendor6google5media2c24V1_013BnHwComponent12getDebugInfoENSt3__18functionIFvRKN7android4hidl4base4V1_09DebugInfoEEEE
_ZN6vendor6google5media2c24V1_013BnHwComponent13_hidl_releaseEPN7android4hidl4base4V1_08BnHwBaseERKNS5_8hardware6ParcelEPSC_NSt3__18functionIFvRSC_EEE
_ZN6vendor6google5media2c24V1_013BnHwComponent21_hidl_createBlockPoolEPN7android4hidl4base4V1_08BnHwBaseERKNS5_8hardware6ParcelEPSC_NSt3__18functionIFvRSC_EEE
_ZN6vendor6google5media2c24V1_013BnHwComponent27_hidl_connectToInputSurfaceEPN7android4hidl4base4V1_08BnHwBaseERKNS5_8hardware6ParcelEPSC_NSt3__18functionIFvRSC_EEE
_ZN6vendor6google5media2c24V1_013BnHwComponent30_hidl_connectToOmxInputSurfaceEPN7android4hidl4base4V1_08BnHwBaseERKNS5_8hardware6ParcelEPSC_NSt3__18functionIFvRSC_EEE
_ZN6vendor6google5media2c24V1_013BnHwComponent32_hidl_disconnectFromInputSurfaceEPN7android4hidl4base4V1_08BnHwBaseERKNS5_8hardware6ParcelEPSC_NSt3__18functionIFvRSC_EEE
_ZN6vendor6google5media2c24V1_013BnHwComponent4pingEv
_ZN6vendor6google5media2c24V1_013BnHwComponentC1ERKN7android2spINS3_10IComponentEEE
_ZN6vendor6google5media2c24V1_013BnHwComponentC2ERKN7android2spINS3_10IComponentEEE
_ZN6vendor6google5media2c24V1_013BnHwComponentD0Ev
_ZN6vendor6google5media2c24V1_013BnHwComponentD1Ev
_ZN6vendor6google5media2c24V1_013BnHwComponentD2Ev
_ZN6vendor6google5media2c24V1_013BpHwComponent10_hidl_stopEPN7android8hardware10IInterfaceEPNS6_7details16HidlInstrumentorE
_ZN6vendor6google5media2c24V1_013BpHwComponent11_hidl_drainEPN7android8hardware10IInterfaceEPNS6_7details16HidlInstrumentorEb
_ZN6vendor6google5media2c24V1_013BpHwComponent11_hidl_flushEPN7android8hardware10IInterfaceEPNS6_7details16HidlInstrumentorENSt3__18functionIFvNS3_6StatusERKNS3_10WorkBundleEEEE
_ZN6vendor6google5media2c24V1_013BpHwComponent11_hidl_queueEPN7android8hardware10IInterfaceEPNS6_7details16HidlInstrumentorERKNS3_10WorkBundleE
_ZN6vendor6google5media2c24V1_013BpHwComponent11_hidl_resetEPN7android8hardware10IInterfaceEPNS6_7details16HidlInstrumentorE
_ZN6vendor6google5media2c24V1_013BpHwComponent11_hidl_startEPN7android8hardware10IInterfaceEPNS6_7details16HidlInstrumentorE
_ZN6vendor6google5media2c24V1_013BpHwComponent11linkToDeathERKN7android2spINS5_8hardware20hidl_death_recipientEEEm
_ZN6vendor6google5media2c24V1_013BpHwComponent12getDebugInfoENSt3__18functionIFvRKN7android4hidl4base4V1_09DebugInfoEEEE
_ZN6vendor6google5media2c24V1_013BpHwComponent12getHashChainENSt3__18functionIFvRKN7android8hardware8hidl_vecINS8_10hidl_arrayIhLm32EJEEEEEEEE
_ZN6vendor6google5media2c24V1_013BpHwComponent13_hidl_releaseEPN7android8hardware10IInterfaceEPNS6_7details16HidlInstrumentorE
_ZN6vendor6google5media2c24V1_013BpHwComponent13unlinkToDeathERKN7android2spINS5_8hardware20hidl_death_recipientEEE
_ZN6vendor6google5media2c24V1_013BpHwComponent14interfaceChainENSt3__18functionIFvRKN7android8hardware8hidl_vecINS8_11hidl_stringEEEEEE
_ZN6vendor6google5media2c24V1_013BpHwComponent15createBlockPoolEjNSt3__18functionIFvNS3_6StatusEmRKN7android2spINS3_13IConfigurableEEEEEE
_ZN6vendor6google5media2c24V1_013BpHwComponent19interfaceDescriptorENSt3__18functionIFvRKN7android8hardware11hidl_stringEEEE
_ZN6vendor6google5media2c24V1_013BpHwComponent20querySupportedParamsEjjNSt3__18functionIFvNS3_6StatusERKN7android8hardware8hidl_vecINS3_15ParamDescriptorEEEEEE
_ZN6vendor6google5media2c24V1_013BpHwComponent20querySupportedValuesERKN7android8hardware8hidl_vecINS3_25FieldSupportedValuesQueryEEEbNSt3__18functionIFvNS3_6StatusERKNS7_INS3_31FieldSupportedValuesQueryResultEEEEEE
_ZN6vendor6google5media2c24V1_013BpHwComponent21_hidl_createBlockPoolEPN7android8hardware10IInterfaceEPNS6_7details16HidlInstrumentorEjNSt3__18functionIFvNS3_6StatusEmRKNS5_2spINS3_13IConfigurableEEEEEE
_ZN6vendor6google5media2c24V1_013BpHwComponent21connectToInputSurfaceERKN7android2spINS3_13IInputSurfaceEEE
_ZN6vendor6google5media2c24V1_013BpHwComponent21notifySyspropsChangedEv
_ZN6vendor6google5media2c24V1_013BpHwComponent21setHALInstrumentationEv
_ZN6vendor6google5media2c24V1_013BpHwComponent24connectToOmxInputSurfaceERKN7android2spINS5_8hardware8graphics11bufferqueue4V1_022IGraphicBufferProducerEEERKNS6_INS7_5media3omx4V1_020IGraphicBufferSourceEEE
_ZN6vendor6google5media2c24V1_013BpHwComponent26disconnectFromInputSurfaceEv
_ZN6vendor6google5media2c24V1_013BpHwComponent27_hidl_connectToInputSurfaceEPN7android8hardware10IInterfaceEPNS6_7details16HidlInstrumentorERKNS5_2spINS3_13IInputSurfaceEEE
_ZN6vendor6google5media2c24V1_013BpHwComponent30_hidl_connectToOmxInputSurfaceEPN7android8hardware10IInterfaceEPNS6_7details16HidlInstrumentorERKNS5_2spINS6_8graphics11bufferqueue4V1_022IGraphicBufferProducerEEERKNSC_INS6_5media3omx4V1_020IGraphicBufferSourceEEE
_ZN6vendor6google5media2c24V1_013BpHwComponent32_hidl_disconnectFromInputSurfaceEPN7android8hardware10IInterfaceEPNS6_7details16HidlInstrumentorE
_ZN6vendor6google5media2c24V1_013BpHwComponent4pingEv
_ZN6vendor6google5media2c24V1_013BpHwComponent4stopEv
_ZN6vendor6google5media2c24V1_013BpHwComponent5debugERKN7android8hardware11hidl_handleERKNS6_8hidl_vecINS6_11hidl_stringEEE
_ZN6vendor6google5media2c24V1_013BpHwComponent5drainEb
_ZN6vendor6google5media2c24V1_013BpHwComponent5flushENSt3__18functionIFvNS3_6StatusERKNS3_10WorkBundleEEEE
_ZN6vendor6google5media2c24V1_013BpHwComponent5queryERKN7android8hardware8hidl_vecIjEEbNSt3__18functionIFvNS3_6StatusERKNS7_IhEEEEE
_ZN6vendor6google5media2c24V1_013BpHwComponent5queueERKNS3_10WorkBundleE
_ZN6vendor6google5media2c24V1_013BpHwComponent5resetEv
_ZN6vendor6google5media2c24V1_013BpHwComponent5startEv
_ZN6vendor6google5media2c24V1_013BpHwComponent6configERKN7android8hardware8hidl_vecIhEEbNSt3__18functionIFvNS3_6StatusERKNS7_INS3_13SettingResultEEESA_EEE
_ZN6vendor6google5media2c24V1_013BpHwComponent7getNameENSt3__18functionIFvRKN7android8hardware11hidl_stringEEEE
_ZN6vendor6google5media2c24V1_013BpHwComponent7releaseEv
_ZN6vendor6google5media2c24V1_013BpHwComponentC1ERKN7android2spINS5_8hardware7IBinderEEE
_ZN6vendor6google5media2c24V1_013BpHwComponentC2ERKN7android2spINS5_8hardware7IBinderEEE
_ZN6vendor6google5media2c24V1_013IConfigurable10descriptorE
_ZN6vendor6google5media2c24V1_013IConfigurable10getServiceERKNSt3__112basic_stringIcNS5_11char_traitsIcEENS5_9allocatorIcEEEEb
_ZN6vendor6google5media2c24V1_013IConfigurable11linkToDeathERKN7android2spINS5_8hardware20hidl_death_recipientEEEm
_ZN6vendor6google5media2c24V1_013IConfigurable12getDebugInfoENSt3__18functionIFvRKN7android4hidl4base4V1_09DebugInfoEEEE
_ZN6vendor6google5media2c24V1_013IConfigurable12getHashChainENSt3__18functionIFvRKN7android8hardware8hidl_vecINS8_10hidl_arrayIhLm32EJEEEEEEEE
_ZN6vendor6google5media2c24V1_013IConfigurable13tryGetServiceERKNSt3__112basic_stringIcNS5_11char_traitsIcEENS5_9allocatorIcEEEEb
_ZN6vendor6google5media2c24V1_013IConfigurable13unlinkToDeathERKN7android2spINS5_8hardware20hidl_death_recipientEEE
_ZN6vendor6google5media2c24V1_013IConfigurable14interfaceChainENSt3__18functionIFvRKN7android8hardware8hidl_vecINS8_11hidl_stringEEEEEE
_ZN6vendor6google5media2c24V1_013IConfigurable17registerAsServiceERKNSt3__112basic_stringIcNS5_11char_traitsIcEENS5_9allocatorIcEEEE
_ZN6vendor6google5media2c24V1_013IConfigurable19interfaceDescriptorENSt3__18functionIFvRKN7android8hardware11hidl_stringEEEE
_ZN6vendor6google5media2c24V1_013IConfigurable21notifySyspropsChangedEv
_ZN6vendor6google5media2c24V1_013IConfigurable21setHALInstrumentationEv
_ZN6vendor6google5media2c24V1_013IConfigurable24registerForNotificationsERKNSt3__112basic_stringIcNS5_11char_traitsIcEENS5_9allocatorIcEEEERKN7android2spINSE_4hidl7manager4V1_020IServiceNotificationEEE
_ZN6vendor6google5media2c24V1_013IConfigurable4pingEv
_ZN6vendor6google5media2c24V1_013IConfigurable5debugERKN7android8hardware11hidl_handleERKNS6_8hidl_vecINS6_11hidl_stringEEE
_ZN6vendor6google5media2c24V1_013IConfigurable8castFromERKN7android2spINS5_4hidl4base4V1_05IBaseEEEb
_ZN6vendor6google5media2c24V1_013IConfigurable8castFromERKN7android2spIS4_EEb
_ZN6vendor6google5media2c24V1_013IInputSurface10descriptorE
_ZN6vendor6google5media2c24V1_013IInputSurface10getServiceERKNSt3__112basic_stringIcNS5_11char_traitsIcEENS5_9allocatorIcEEEEb
_ZN6vendor6google5media2c24V1_013IInputSurface11linkToDeathERKN7android2spINS5_8hardware20hidl_death_recipientEEEm
_ZN6vendor6google5media2c24V1_013IInputSurface12getDebugInfoENSt3__18functionIFvRKN7android4hidl4base4V1_09DebugInfoEEEE
_ZN6vendor6google5media2c24V1_013IInputSurface12getHashChainENSt3__18functionIFvRKN7android8hardware8hidl_vecINS8_10hidl_arrayIhLm32EJEEEEEEEE
_ZN6vendor6google5media2c24V1_013IInputSurface13tryGetServiceERKNSt3__112basic_stringIcNS5_11char_traitsIcEENS5_9allocatorIcEEEEb
_ZN6vendor6google5media2c24V1_013IInputSurface13unlinkToDeathERKN7android2spINS5_8hardware20hidl_death_recipientEEE
_ZN6vendor6google5media2c24V1_013IInputSurface14interfaceChainENSt3__18functionIFvRKN7android8hardware8hidl_vecINS8_11hidl_stringEEEEEE
_ZN6vendor6google5media2c24V1_013IInputSurface17registerAsServiceERKNSt3__112basic_stringIcNS5_11char_traitsIcEENS5_9allocatorIcEEEE
_ZN6vendor6google5media2c24V1_013IInputSurface19interfaceDescriptorENSt3__18functionIFvRKN7android8hardware11hidl_stringEEEE
_ZN6vendor6google5media2c24V1_013IInputSurface21notifySyspropsChangedEv
_ZN6vendor6google5media2c24V1_013IInputSurface21setHALInstrumentationEv
_ZN6vendor6google5media2c24V1_013IInputSurface24registerForNotificationsERKNSt3__112basic_stringIcNS5_11char_traitsIcEENS5_9allocatorIcEEEERKN7android2spINSE_4hidl7manager4V1_020IServiceNotificationEEE
_ZN6vendor6google5media2c24V1_013IInputSurface4pingEv
_ZN6vendor6google5media2c24V1_013IInputSurface5debugERKN7android8hardware11hidl_handleERKNS6_8hidl_vecINS6_11hidl_stringEEE
_ZN6vendor6google5media2c24V1_013IInputSurface8castFromERKN7android2spINS5_4hidl4base4V1_05IBaseEEEb
_ZN6vendor6google5media2c24V1_013IInputSurface8castFromERKN7android2spINS5_8hardware8graphics11bufferqueue4V1_022IGraphicBufferProducerEEEb
_ZN6vendor6google5media2c24V1_013IInputSurface8castFromERKN7android2spIS4_EEb
_ZN6vendor6google5media2c24V1_014BsConfigurable13addOnewayTaskENSt3__18functionIFvvEEE
_ZN6vendor6google5media2c24V1_014BsConfigurableC1EN7android2spINS3_13IConfigurableEEE
_ZN6vendor6google5media2c24V1_014BsConfigurableC2EN7android2spINS3_13IConfigurableEEE
_ZN6vendor6google5media2c24V1_014BsInputSurface13addOnewayTaskENSt3__18functionIFvvEEE
_ZN6vendor6google5media2c24V1_014BsInputSurfaceC1EN7android2spINS3_13IInputSurfaceEEE
_ZN6vendor6google5media2c24V1_014BsInputSurfaceC2EN7android2spINS3_13IInputSurfaceEEE
_ZN6vendor6google5media2c24V1_015IComponentStore10descriptorE
_ZN6vendor6google5media2c24V1_015IComponentStore10getServiceERKNSt3__112basic_stringIcNS5_11char_traitsIcEENS5_9allocatorIcEEEEb
_ZN6vendor6google5media2c24V1_015IComponentStore11linkToDeathERKN7android2spINS5_8hardware20hidl_death_recipientEEEm
_ZN6vendor6google5media2c24V1_015IComponentStore12getDebugInfoENSt3__18functionIFvRKN7android4hidl4base4V1_09DebugInfoEEEE
_ZN6vendor6google5media2c24V1_015IComponentStore12getHashChainENSt3__18functionIFvRKN7android8hardware8hidl_vecINS8_10hidl_arrayIhLm32EJEEEEEEEE
_ZN6vendor6google5media2c24V1_015IComponentStore13tryGetServiceERKNSt3__112basic_stringIcNS5_11char_traitsIcEENS5_9allocatorIcEEEEb
_ZN6vendor6google5media2c24V1_015IComponentStore13unlinkToDeathERKN7android2spINS5_8hardware20hidl_death_recipientEEE
_ZN6vendor6google5media2c24V1_015IComponentStore14interfaceChainENSt3__18functionIFvRKN7android8hardware8hidl_vecINS8_11hidl_stringEEEEEE
_ZN6vendor6google5media2c24V1_015IComponentStore17registerAsServiceERKNSt3__112basic_stringIcNS5_11char_traitsIcEENS5_9allocatorIcEEEE
_ZN6vendor6google5media2c24V1_015IComponentStore19interfaceDescriptorENSt3__18functionIFvRKN7android8hardware11hidl_stringEEEE
_ZN6vendor6google5media2c24V1_015IComponentStore21notifySyspropsChangedEv
_ZN6vendor6google5media2c24V1_015IComponentStore21setHALInstrumentationEv
_ZN6vendor6google5media2c24V1_015IComponentStore24registerForNotificationsERKNSt3__112basic_stringIcNS5_11char_traitsIcEENS5_9allocatorIcEEEERKN7android2spINSE_4hidl7manager4V1_020IServiceNotificationEEE
_ZN6vendor6google5media2c24V1_015IComponentStore4pingEv
_ZN6vendor6google5media2c24V1_015IComponentStore5debugERKN7android8hardware11hidl_handleERKNS6_8hidl_vecINS6_11hidl_stringEEE
_ZN6vendor6google5media2c24V1_015IComponentStore8castFromERKN7android2spINS3_13IConfigurableEEEb
_ZN6vendor6google5media2c24V1_015IComponentStore8castFromERKN7android2spINS5_4hidl4base4V1_05IBaseEEEb
_ZN6vendor6google5media2c24V1_015IComponentStore8castFromERKN7android2spIS4_EEb
_ZN6vendor6google5media2c24V1_016BnHwConfigurable10onTransactEjRKN7android8hardware6ParcelEPS7_jNSt3__18functionIFvRS7_EEE
_ZN6vendor6google5media2c24V1_016BnHwConfigurable11_hidl_queryEPN7android4hidl4base4V1_08BnHwBaseERKNS5_8hardware6ParcelEPSC_NSt3__18functionIFvRSC_EEE
_ZN6vendor6google5media2c24V1_016BnHwConfigurable12_hidl_configEPN7android4hidl4base4V1_08BnHwBaseERKNS5_8hardware6ParcelEPSC_NSt3__18functionIFvRSC_EEE
_ZN6vendor6google5media2c24V1_016BnHwConfigurable12getDebugInfoENSt3__18functionIFvRKN7android4hidl4base4V1_09DebugInfoEEEE
_ZN6vendor6google5media2c24V1_016BnHwConfigurable13_hidl_getNameEPN7android4hidl4base4V1_08BnHwBaseERKNS5_8hardware6ParcelEPSC_NSt3__18functionIFvRSC_EEE
_ZN6vendor6google5media2c24V1_016BnHwConfigurable26_hidl_querySupportedParamsEPN7android4hidl4base4V1_08BnHwBaseERKNS5_8hardware6ParcelEPSC_NSt3__18functionIFvRSC_EEE
_ZN6vendor6google5media2c24V1_016BnHwConfigurable26_hidl_querySupportedValuesEPN7android4hidl4base4V1_08BnHwBaseERKNS5_8hardware6ParcelEPSC_NSt3__18functionIFvRSC_EEE
_ZN6vendor6google5media2c24V1_016BnHwConfigurable4pingEv
_ZN6vendor6google5media2c24V1_016BnHwConfigurableC1ERKN7android2spINS3_13IConfigurableEEE
_ZN6vendor6google5media2c24V1_016BnHwConfigurableC2ERKN7android2spINS3_13IConfigurableEEE
_ZN6vendor6google5media2c24V1_016BnHwConfigurableD0Ev
_ZN6vendor6google5media2c24V1_016BnHwConfigurableD1Ev
_ZN6vendor6google5media2c24V1_016BnHwConfigurableD2Ev
_ZN6vendor6google5media2c24V1_016BnHwInputSurface10onTransactEjRKN7android8hardware6ParcelEPS7_jNSt3__18functionIFvRS7_EEE
_ZN6vendor6google5media2c24V1_016BnHwInputSurface12getDebugInfoENSt3__18functionIFvRKN7android4hidl4base4V1_09DebugInfoEEEE
_ZN6vendor6google5media2c24V1_016BnHwInputSurface21_hidl_getConfigurableEPN7android4hidl4base4V1_08BnHwBaseERKNS5_8hardware6ParcelEPSC_NSt3__18functionIFvRSC_EEE
_ZN6vendor6google5media2c24V1_016BnHwInputSurface24_hidl_connectToComponentEPN7android4hidl4base4V1_08BnHwBaseERKNS5_8hardware6ParcelEPSC_NSt3__18functionIFvRSC_EEE
_ZN6vendor6google5media2c24V1_016BnHwInputSurface4pingEv
_ZN6vendor6google5media2c24V1_016BnHwInputSurfaceC1ERKN7android2spINS3_13IInputSurfaceEEE
_ZN6vendor6google5media2c24V1_016BnHwInputSurfaceC2ERKN7android2spINS3_13IInputSurfaceEEE
_ZN6vendor6google5media2c24V1_016BnHwInputSurfaceD0Ev
_ZN6vendor6google5media2c24V1_016BnHwInputSurfaceD1Ev
_ZN6vendor6google5media2c24V1_016BnHwInputSurfaceD2Ev
_ZN6vendor6google5media2c24V1_016BpHwConfigurable11_hidl_queryEPN7android8hardware10IInterfaceEPNS6_7details16HidlInstrumentorERKNS6_8hidl_vecIjEEbNSt3__18functionIFvNS3_6StatusERKNSC_IhEEEEE
_ZN6vendor6google5media2c24V1_016BpHwConfigurable11linkToDeathERKN7android2spINS5_8hardware20hidl_death_recipientEEEm
_ZN6vendor6google5media2c24V1_016BpHwConfigurable12_hidl_configEPN7android8hardware10IInterfaceEPNS6_7details16HidlInstrumentorERKNS6_8hidl_vecIhEEbNSt3__18functionIFvNS3_6StatusERKNSC_INS3_13SettingResultEEESF_EEE
_ZN6vendor6google5media2c24V1_016BpHwConfigurable12getDebugInfoENSt3__18functionIFvRKN7android4hidl4base4V1_09DebugInfoEEEE
_ZN6vendor6google5media2c24V1_016BpHwConfigurable12getHashChainENSt3__18functionIFvRKN7android8hardware8hidl_vecINS8_10hidl_arrayIhLm32EJEEEEEEEE
_ZN6vendor6google5media2c24V1_016BpHwConfigurable13_hidl_getNameEPN7android8hardware10IInterfaceEPNS6_7details16HidlInstrumentorENSt3__18functionIFvRKNS6_11hidl_stringEEEE
_ZN6vendor6google5media2c24V1_016BpHwConfigurable13unlinkToDeathERKN7android2spINS5_8hardware20hidl_death_recipientEEE
_ZN6vendor6google5media2c24V1_016BpHwConfigurable14interfaceChainENSt3__18functionIFvRKN7android8hardware8hidl_vecINS8_11hidl_stringEEEEEE
_ZN6vendor6google5media2c24V1_016BpHwConfigurable19interfaceDescriptorENSt3__18functionIFvRKN7android8hardware11hidl_stringEEEE
_ZN6vendor6google5media2c24V1_016BpHwConfigurable20querySupportedParamsEjjNSt3__18functionIFvNS3_6StatusERKN7android8hardware8hidl_vecINS3_15ParamDescriptorEEEEEE
_ZN6vendor6google5media2c24V1_016BpHwConfigurable20querySupportedValuesERKN7android8hardware8hidl_vecINS3_25FieldSupportedValuesQueryEEEbNSt3__18functionIFvNS3_6StatusERKNS7_INS3_31FieldSupportedValuesQueryResultEEEEEE
_ZN6vendor6google5media2c24V1_016BpHwConfigurable21notifySyspropsChangedEv
_ZN6vendor6google5media2c24V1_016BpHwConfigurable21setHALInstrumentationEv
_ZN6vendor6google5media2c24V1_016BpHwConfigurable26_hidl_querySupportedParamsEPN7android8hardware10IInterfaceEPNS6_7details16HidlInstrumentorEjjNSt3__18functionIFvNS3_6StatusERKNS6_8hidl_vecINS3_15ParamDescriptorEEEEEE
_ZN6vendor6google5media2c24V1_016BpHwConfigurable26_hidl_querySupportedValuesEPN7android8hardware10IInterfaceEPNS6_7details16HidlInstrumentorERKNS6_8hidl_vecINS3_25FieldSupportedValuesQueryEEEbNSt3__18functionIFvNS3_6StatusERKNSC_INS3_31FieldSupportedValuesQueryResultEEEEEE
_ZN6vendor6google5media2c24V1_016BpHwConfigurable4pingEv
_ZN6vendor6google5media2c24V1_016BpHwConfigurable5debugERKN7android8hardware11hidl_handleERKNS6_8hidl_vecINS6_11hidl_stringEEE
_ZN6vendor6google5media2c24V1_016BpHwConfigurable5queryERKN7android8hardware8hidl_vecIjEEbNSt3__18functionIFvNS3_6StatusERKNS7_IhEEEEE
_ZN6vendor6google5media2c24V1_016BpHwConfigurable6configERKN7android8hardware8hidl_vecIhEEbNSt3__18functionIFvNS3_6StatusERKNS7_INS3_13SettingResultEEESA_EEE
_ZN6vendor6google5media2c24V1_016BpHwConfigurable7getNameENSt3__18functionIFvRKN7android8hardware11hidl_stringEEEE
_ZN6vendor6google5media2c24V1_016BpHwConfigurableC1ERKN7android2spINS5_8hardware7IBinderEEE
_ZN6vendor6google5media2c24V1_016BpHwConfigurableC2ERKN7android2spINS5_8hardware7IBinderEEE
_ZN6vendor6google5media2c24V1_016BpHwInputSurface10disconnectEiN7android8hardware8graphics11bufferqueue4V1_022IGraphicBufferProducer14DisconnectModeE
_ZN6vendor6google5media2c24V1_016BpHwInputSurface11getUniqueIdENSt3__18functionIFvimEEE
_ZN6vendor6google5media2c24V1_016BpHwInputSurface11linkToDeathERKN7android2spINS5_8hardware20hidl_death_recipientEEEm
_ZN6vendor6google5media2c24V1_016BpHwInputSurface11queueBufferEiRKN7android8hardware8graphics11bufferqueue4V1_022IGraphicBufferProducer16QueueBufferInputENSt3__18functionIFviRKNSA_17QueueBufferOutputEEEE
_ZN6vendor6google5media2c24V1_016BpHwInputSurface12attachBufferERKN7android8hardware5media4V1_09AnwBufferENSt3__18functionIFviiEEE
_ZN6vendor6google5media2c24V1_016BpHwInputSurface12cancelBufferEiRKN7android8hardware11hidl_handleE
_ZN6vendor6google5media2c24V1_016BpHwInputSurface12detachBufferEi
_ZN6vendor6google5media2c24V1_016BpHwInputSurface12getDebugInfoENSt3__18functionIFvRKN7android4hidl4base4V1_09DebugInfoEEEE
_ZN6vendor6google5media2c24V1_016BpHwInputSurface12getHashChainENSt3__18functionIFvRKN7android8hardware8hidl_vecINS8_10hidl_arrayIhLm32EJEEEEEEEE
_ZN6vendor6google5media2c24V1_016BpHwInputSurface12setAsyncModeEb
_ZN6vendor6google5media2c24V1_016BpHwInputSurface13dequeueBufferEjjN7android8hardware8graphics6common4V1_011PixelFormatEjbNSt3__18functionIFviiRKNS6_11hidl_handleERKNS7_11bufferqueue4V1_022IGraphicBufferProducer22FrameEventHistoryDeltaEEEE
_ZN6vendor6google5media2c24V1_016BpHwInputSurface13requestBufferEiNSt3__18functionIFviRKN7android8hardware5media4V1_09AnwBufferEEEE
_ZN6vendor6google5media2c24V1_016BpHwInputSurface13unlinkToDeathERKN7android2spINS5_8hardware20hidl_death_recipientEEE
_ZN6vendor6google5media2c24V1_016BpHwInputSurface14interfaceChainENSt3__18functionIFvRKN7android8hardware8hidl_vecINS8_11hidl_stringEEEEEE
_ZN6vendor6google5media2c24V1_016BpHwInputSurface14setAutoRefreshEb
_ZN6vendor6google5media2c24V1_016BpHwInputSurface15allocateBuffersEjjN7android8hardware8graphics6common4V1_011PixelFormatEj
_ZN6vendor6google5media2c24V1_016BpHwInputSurface15allowAllocationEb
_ZN6vendor6google5media2c24V1_016BpHwInputSurface15getConfigurableEv
_ZN6vendor6google5media2c24V1_016BpHwInputSurface15getConsumerNameENSt3__18functionIFvRKN7android8hardware11hidl_stringEEEE
_ZN6vendor6google5media2c24V1_016BpHwInputSurface16detachNextBufferENSt3__18functionIFviRKN7android8hardware5media4V1_09AnwBufferERKNS8_11hidl_handleEEEE
_ZN6vendor6google5media2c24V1_016BpHwInputSurface17setDequeueTimeoutEl
_ZN6vendor6google5media2c24V1_016BpHwInputSurface17setSidebandStreamERKN7android8hardware11hidl_handleE
_ZN6vendor6google5media2c24V1_016BpHwInputSurface18connectToComponentERKN7android2spINS5_4hidl4base4V1_05IBaseEEENSt3__18functionIFvNS3_6StatusERKNS6_INS3_23IInputSurfaceConnectionEEEEEE
_ZN6vendor6google5media2c24V1_016BpHwInputSurface18getFrameTimestampsENSt3__18functionIFvRKN7android8hardware8graphics11bufferqueue4V1_022IGraphicBufferProducer22FrameEventHistoryDeltaEEEE
_ZN6vendor6google5media2c24V1_016BpHwInputSurface19getLastQueuedBufferENSt3__18functionIFviRKN7android8hardware5media4V1_09AnwBufferERKNS8_11hidl_handleERKNS8_10hidl_arrayIfLm16EJEEEEEE
_ZN6vendor6google5media2c24V1_016BpHwInputSurface19interfaceDescriptorENSt3__18functionIFvRKN7android8hardware11hidl_stringEEEE
_ZN6vendor6google5media2c24V1_016BpHwInputSurface19setGenerationNumberEj
_ZN6vendor6google5media2c24V1_016BpHwInputSurface19setSharedBufferModeEb
_ZN6vendor6google5media2c24V1_016BpHwInputSurface21_hidl_getConfigurableEPN7android8hardware10IInterfaceEPNS6_7details16HidlInstrumentorE
_ZN6vendor6google5media2c24V1_016BpHwInputSurface21notifySyspropsChangedEv
_ZN6vendor6google5media2c24V1_016BpHwInputSurface21setHALInstrumentationEv
_ZN6vendor6google5media2c24V1_016BpHwInputSurface24_hidl_connectToComponentEPN7android8hardware10IInterfaceEPNS6_7details16HidlInstrumentorERKNS5_2spINS5_4hidl4base4V1_05IBaseEEENSt3__18functionIFvNS3_6StatusERKNSC_INS3_23IInputSurfaceConnectionEEEEEE
_ZN6vendor6google5media2c24V1_016BpHwInputSurface25setMaxDequeuedBufferCountEi
_ZN6vendor6google5media2c24V1_016BpHwInputSurface4pingEv
_ZN6vendor6google5media2c24V1_016BpHwInputSurface5debugERKN7android8hardware11hidl_handleERKNS6_8hidl_vecINS6_11hidl_stringEEE
_ZN6vendor6google5media2c24V1_016BpHwInputSurface5queryEiNSt3__18functionIFviiEEE
_ZN6vendor6google5media2c24V1_016BpHwInputSurface7connectERKN7android2spINS5_8hardware8graphics11bufferqueue4V1_017IProducerListenerEEEibNSt3__18functionIFviRKNSA_22IGraphicBufferProducer17QueueBufferOutputEEEE
_ZN6vendor6google5media2c24V1_016BpHwInputSurfaceC1ERKN7android2spINS5_8hardware7IBinderEEE
_ZN6vendor6google5media2c24V1_016BpHwInputSurfaceC2ERKN7android2spINS5_8hardware7IBinderEEE
_ZN6vendor6google5media2c24V1_016BsComponentStore13addOnewayTaskENSt3__18functionIFvvEEE
_ZN6vendor6google5media2c24V1_016BsComponentStoreC1EN7android2spINS3_15IComponentStoreEEE
_ZN6vendor6google5media2c24V1_016BsComponentStoreC2EN7android2spINS3_15IComponentStoreEEE
_ZN6vendor6google5media2c24V1_018BnHwComponentStore10onTransactEjRKN7android8hardware6ParcelEPS7_jNSt3__18functionIFvRS7_EEE
_ZN6vendor6google5media2c24V1_018BnHwComponentStore12getDebugInfoENSt3__18functionIFvRKN7android4hidl4base4V1_09DebugInfoEEEE
_ZN6vendor6google5media2c24V1_018BnHwComponentStore16_hidl_copyBufferEPN7android4hidl4base4V1_08BnHwBaseERKNS5_8hardware6ParcelEPSC_NSt3__18functionIFvRSC_EEE
_ZN6vendor6google5media2c24V1_018BnHwComponentStore20_hidl_listComponentsEPN7android4hidl4base4V1_08BnHwBaseERKNS5_8hardware6ParcelEPSC_NSt3__18functionIFvRSC_EEE
_ZN6vendor6google5media2c24V1_018BnHwComponentStore21_hidl_createComponentEPN7android4hidl4base4V1_08BnHwBaseERKNS5_8hardware6ParcelEPSC_NSt3__18functionIFvRSC_EEE
_ZN6vendor6google5media2c24V1_018BnHwComponentStore21_hidl_createInterfaceEPN7android4hidl4base4V1_08BnHwBaseERKNS5_8hardware6ParcelEPSC_NSt3__18functionIFvRSC_EEE
_ZN6vendor6google5media2c24V1_018BnHwComponentStore24_hidl_createInputSurfaceEPN7android4hidl4base4V1_08BnHwBaseERKNS5_8hardware6ParcelEPSC_NSt3__18functionIFvRSC_EEE
_ZN6vendor6google5media2c24V1_018BnHwComponentStore26_hidl_getPoolClientManagerEPN7android4hidl4base4V1_08BnHwBaseERKNS5_8hardware6ParcelEPSC_NSt3__18functionIFvRSC_EEE
_ZN6vendor6google5media2c24V1_018BnHwComponentStore26_hidl_getStructDescriptorsEPN7android4hidl4base4V1_08BnHwBaseERKNS5_8hardware6ParcelEPSC_NSt3__18functionIFvRSC_EEE
_ZN6vendor6google5media2c24V1_018BnHwComponentStore4pingEv
_ZN6vendor6google5media2c24V1_018BnHwComponentStoreC1ERKN7android2spINS3_15IComponentStoreEEE
_ZN6vendor6google5media2c24V1_018BnHwComponentStoreC2ERKN7android2spINS3_15IComponentStoreEEE
_ZN6vendor6google5media2c24V1_018BnHwComponentStoreD0Ev
_ZN6vendor6google5media2c24V1_018BnHwComponentStoreD1Ev
_ZN6vendor6google5media2c24V1_018BnHwComponentStoreD2Ev
_ZN6vendor6google5media2c24V1_018BpHwComponentStore10copyBufferERKNS3_6BufferES7_
_ZN6vendor6google5media2c24V1_018BpHwComponentStore11linkToDeathERKN7android2spINS5_8hardware20hidl_death_recipientEEEm
_ZN6vendor6google5media2c24V1_018BpHwComponentStore12getDebugInfoENSt3__18functionIFvRKN7android4hidl4base4V1_09DebugInfoEEEE
_ZN6vendor6google5media2c24V1_018BpHwComponentStore12getHashChainENSt3__18functionIFvRKN7android8hardware8hidl_vecINS8_10hidl_arrayIhLm32EJEEEEEEEE
_ZN6vendor6google5media2c24V1_018BpHwComponentStore13unlinkToDeathERKN7android2spINS5_8hardware20hidl_death_recipientEEE
_ZN6vendor6google5media2c24V1_018BpHwComponentStore14interfaceChainENSt3__18functionIFvRKN7android8hardware8hidl_vecINS8_11hidl_stringEEEEEE
_ZN6vendor6google5media2c24V1_018BpHwComponentStore14listComponentsENSt3__18functionIFvRKN7android8hardware8hidl_vecINS3_15IComponentStore15ComponentTraitsEEEEEE
_ZN6vendor6google5media2c24V1_018BpHwComponentStore15createComponentERKN7android8hardware11hidl_stringERKNS5_2spINS3_18IComponentListenerEEERKNSA_INS6_5media10bufferpool4V1_014IClientManagerEEENSt3__18functionIFvNS3_6StatusERKNSA_INS3_10IComponentEEEEEE
_ZN6vendor6google5media2c24V1_018BpHwComponentStore15createInterfaceERKN7android8hardware11hidl_stringENSt3__18functionIFvNS3_6StatusERKNS5_2spINS3_19IComponentInterfaceEEEEEE
_ZN6vendor6google5media2c24V1_018BpHwComponentStore16_hidl_copyBufferEPN7android8hardware10IInterfaceEPNS6_7details16HidlInstrumentorERKNS3_6BufferESE_
_ZN6vendor6google5media2c24V1_018BpHwComponentStore18createInputSurfaceEv
_ZN6vendor6google5media2c24V1_018BpHwComponentStore19interfaceDescriptorENSt3__18functionIFvRKN7android8hardware11hidl_stringEEEE
_ZN6vendor6google5media2c24V1_018BpHwComponentStore20_hidl_listComponentsEPN7android8hardware10IInterfaceEPNS6_7details16HidlInstrumentorENSt3__18functionIFvRKNS6_8hidl_vecINS3_15IComponentStore15ComponentTraitsEEEEEE
_ZN6vendor6google5media2c24V1_018BpHwComponentStore20getPoolClientManagerEv
_ZN6vendor6google5media2c24V1_018BpHwComponentStore20getStructDescriptorsERKN7android8hardware8hidl_vecIjEENSt3__18functionIFvNS3_6StatusERKNS7_INS3_16StructDescriptorEEEEEE
_ZN6vendor6google5media2c24V1_018BpHwComponentStore20querySupportedParamsEjjNSt3__18functionIFvNS3_6StatusERKN7android8hardware8hidl_vecINS3_15ParamDescriptorEEEEEE
_ZN6vendor6google5media2c24V1_018BpHwComponentStore20querySupportedValuesERKN7android8hardware8hidl_vecINS3_25FieldSupportedValuesQueryEEEbNSt3__18functionIFvNS3_6StatusERKNS7_INS3_31FieldSupportedValuesQueryResultEEEEEE
_ZN6vendor6google5media2c24V1_018BpHwComponentStore21_hidl_createComponentEPN7android8hardware10IInterfaceEPNS6_7details16HidlInstrumentorERKNS6_11hidl_stringERKNS5_2spINS3_18IComponentListenerEEERKNSF_INS6_5media10bufferpool4V1_014IClientManagerEEENSt3__18functionIFvNS3_6StatusERKNSF_INS3_10IComponentEEEEEE
_ZN6vendor6google5media2c24V1_018BpHwComponentStore21_hidl_createInterfaceEPN7android8hardware10IInterfaceEPNS6_7details16HidlInstrumentorERKNS6_11hidl_stringENSt3__18functionIFvNS3_6StatusERKNS5_2spINS3_19IComponentInterfaceEEEEEE
_ZN6vendor6google5media2c24V1_018BpHwComponentStore21notifySyspropsChangedEv
_ZN6vendor6google5media2c24V1_018BpHwComponentStore21setHALInstrumentationEv
_ZN6vendor6google5media2c24V1_018BpHwComponentStore24_hidl_createInputSurfaceEPN7android8hardware10IInterfaceEPNS6_7details16HidlInstrumentorE
_ZN6vendor6google5media2c24V1_018BpHwComponentStore26_hidl_getPoolClientManagerEPN7android8hardware10IInterfaceEPNS6_7details16HidlInstrumentorE
_ZN6vendor6google5media2c24V1_018BpHwComponentStore26_hidl_getStructDescriptorsEPN7android8hardware10IInterfaceEPNS6_7details16HidlInstrumentorERKNS6_8hidl_vecIjEENSt3__18functionIFvNS3_6StatusERKNSC_INS3_16StructDescriptorEEEEEE
_ZN6vendor6google5media2c24V1_018BpHwComponentStore4pingEv
_ZN6vendor6google5media2c24V1_018BpHwComponentStore5debugERKN7android8hardware11hidl_handleERKNS6_8hidl_vecINS6_11hidl_stringEEE
_ZN6vendor6google5media2c24V1_018BpHwComponentStore5queryERKN7android8hardware8hidl_vecIjEEbNSt3__18functionIFvNS3_6StatusERKNS7_IhEEEEE
_ZN6vendor6google5media2c24V1_018BpHwComponentStore6configERKN7android8hardware8hidl_vecIhEEbNSt3__18functionIFvNS3_6StatusERKNS7_INS3_13SettingResultEEESA_EEE
_ZN6vendor6google5media2c24V1_018BpHwComponentStore7getNameENSt3__18functionIFvRKN7android8hardware11hidl_stringEEEE
_ZN6vendor6google5media2c24V1_018BpHwComponentStoreC1ERKN7android2spINS5_8hardware7IBinderEEE
_ZN6vendor6google5media2c24V1_018BpHwComponentStoreC2ERKN7android2spINS5_8hardware7IBinderEEE
_ZN6vendor6google5media2c24V1_018IComponentListener10descriptorE
_ZN6vendor6google5media2c24V1_018IComponentListener10getServiceERKNSt3__112basic_stringIcNS5_11char_traitsIcEENS5_9allocatorIcEEEEb
_ZN6vendor6google5media2c24V1_018IComponentListener11linkToDeathERKN7android2spINS5_8hardware20hidl_death_recipientEEEm
_ZN6vendor6google5media2c24V1_018IComponentListener12getDebugInfoENSt3__18functionIFvRKN7android4hidl4base4V1_09DebugInfoEEEE
_ZN6vendor6google5media2c24V1_018IComponentListener12getHashChainENSt3__18functionIFvRKN7android8hardware8hidl_vecINS8_10hidl_arrayIhLm32EJEEEEEEEE
_ZN6vendor6google5media2c24V1_018IComponentListener13tryGetServiceERKNSt3__112basic_stringIcNS5_11char_traitsIcEENS5_9allocatorIcEEEEb
_ZN6vendor6google5media2c24V1_018IComponentListener13unlinkToDeathERKN7android2spINS5_8hardware20hidl_death_recipientEEE
_ZN6vendor6google5media2c24V1_018IComponentListener14interfaceChainENSt3__18functionIFvRKN7android8hardware8hidl_vecINS8_11hidl_stringEEEEEE
_ZN6vendor6google5media2c24V1_018IComponentListener17registerAsServiceERKNSt3__112basic_stringIcNS5_11char_traitsIcEENS5_9allocatorIcEEEE
_ZN6vendor6google5media2c24V1_018IComponentListener19interfaceDescriptorENSt3__18functionIFvRKN7android8hardware11hidl_stringEEEE
_ZN6vendor6google5media2c24V1_018IComponentListener21notifySyspropsChangedEv
_ZN6vendor6google5media2c24V1_018IComponentListener21setHALInstrumentationEv
_ZN6vendor6google5media2c24V1_018IComponentListener24registerForNotificationsERKNSt3__112basic_stringIcNS5_11char_traitsIcEENS5_9allocatorIcEEEERKN7android2spINSE_4hidl7manager4V1_020IServiceNotificationEEE
_ZN6vendor6google5media2c24V1_018IComponentListener4pingEv
_ZN6vendor6google5media2c24V1_018IComponentListener5debugERKN7android8hardware11hidl_handleERKNS6_8hidl_vecINS6_11hidl_stringEEE
_ZN6vendor6google5media2c24V1_018IComponentListener8castFromERKN7android2spINS5_4hidl4base4V1_05IBaseEEEb
_ZN6vendor6google5media2c24V1_018IComponentListener8castFromERKN7android2spIS4_EEb
_ZN6vendor6google5media2c24V1_019BsComponentListener13addOnewayTaskENSt3__18functionIFvvEEE
_ZN6vendor6google5media2c24V1_019BsComponentListenerC1EN7android2spINS3_18IComponentListenerEEE
_ZN6vendor6google5media2c24V1_019BsComponentListenerC2EN7android2spINS3_18IComponentListenerEEE
_ZN6vendor6google5media2c24V1_019IComponentInterface10descriptorE
_ZN6vendor6google5media2c24V1_019IComponentInterface10getServiceERKNSt3__112basic_stringIcNS5_11char_traitsIcEENS5_9allocatorIcEEEEb
_ZN6vendor6google5media2c24V1_019IComponentInterface11linkToDeathERKN7android2spINS5_8hardware20hidl_death_recipientEEEm
_ZN6vendor6google5media2c24V1_019IComponentInterface12getDebugInfoENSt3__18functionIFvRKN7android4hidl4base4V1_09DebugInfoEEEE
_ZN6vendor6google5media2c24V1_019IComponentInterface12getHashChainENSt3__18functionIFvRKN7android8hardware8hidl_vecINS8_10hidl_arrayIhLm32EJEEEEEEEE
_ZN6vendor6google5media2c24V1_019IComponentInterface13tryGetServiceERKNSt3__112basic_stringIcNS5_11char_traitsIcEENS5_9allocatorIcEEEEb
_ZN6vendor6google5media2c24V1_019IComponentInterface13unlinkToDeathERKN7android2spINS5_8hardware20hidl_death_recipientEEE
_ZN6vendor6google5media2c24V1_019IComponentInterface14interfaceChainENSt3__18functionIFvRKN7android8hardware8hidl_vecINS8_11hidl_stringEEEEEE
_ZN6vendor6google5media2c24V1_019IComponentInterface17registerAsServiceERKNSt3__112basic_stringIcNS5_11char_traitsIcEENS5_9allocatorIcEEEE
_ZN6vendor6google5media2c24V1_019IComponentInterface19interfaceDescriptorENSt3__18functionIFvRKN7android8hardware11hidl_stringEEEE
_ZN6vendor6google5media2c24V1_019IComponentInterface21notifySyspropsChangedEv
_ZN6vendor6google5media2c24V1_019IComponentInterface21setHALInstrumentationEv
_ZN6vendor6google5media2c24V1_019IComponentInterface24registerForNotificationsERKNSt3__112basic_stringIcNS5_11char_traitsIcEENS5_9allocatorIcEEEERKN7android2spINSE_4hidl7manager4V1_020IServiceNotificationEEE
_ZN6vendor6google5media2c24V1_019IComponentInterface4pingEv
_ZN6vendor6google5media2c24V1_019IComponentInterface5debugERKN7android8hardware11hidl_handleERKNS6_8hidl_vecINS6_11hidl_stringEEE
_ZN6vendor6google5media2c24V1_019IComponentInterface8castFromERKN7android2spINS3_13IConfigurableEEEb
_ZN6vendor6google5media2c24V1_019IComponentInterface8castFromERKN7android2spINS5_4hidl4base4V1_05IBaseEEEb
_ZN6vendor6google5media2c24V1_019IComponentInterface8castFromERKN7android2spIS4_EEb
_ZN6vendor6google5media2c24V1_020BsComponentInterface13addOnewayTaskENSt3__18functionIFvvEEE
_ZN6vendor6google5media2c24V1_020BsComponentInterfaceC1EN7android2spINS3_19IComponentInterfaceEEE
_ZN6vendor6google5media2c24V1_020BsComponentInterfaceC2EN7android2spINS3_19IComponentInterfaceEEE
_ZN6vendor6google5media2c24V1_021BnHwComponentListener10onTransactEjRKN7android8hardware6ParcelEPS7_jNSt3__18functionIFvRS7_EEE
_ZN6vendor6google5media2c24V1_021BnHwComponentListener12getDebugInfoENSt3__18functionIFvRKN7android4hidl4base4V1_09DebugInfoEEEE
_ZN6vendor6google5media2c24V1_021BnHwComponentListener13_hidl_onErrorEPN7android4hidl4base4V1_08BnHwBaseERKNS5_8hardware6ParcelEPSC_NSt3__18functionIFvRSC_EEE
_ZN6vendor6google5media2c24V1_021BnHwComponentListener15_hidl_onTrippedEPN7android4hidl4base4V1_08BnHwBaseERKNS5_8hardware6ParcelEPSC_NSt3__18functionIFvRSC_EEE
_ZN6vendor6google5media2c24V1_021BnHwComponentListener16_hidl_onWorkDoneEPN7android4hidl4base4V1_08BnHwBaseERKNS5_8hardware6ParcelEPSC_NSt3__18functionIFvRSC_EEE
_ZN6vendor6google5media2c24V1_021BnHwComponentListener4pingEv
_ZN6vendor6google5media2c24V1_021BnHwComponentListenerC1ERKN7android2spINS3_18IComponentListenerEEE
_ZN6vendor6google5media2c24V1_021BnHwComponentListenerC2ERKN7android2spINS3_18IComponentListenerEEE
_ZN6vendor6google5media2c24V1_021BnHwComponentListenerD0Ev
_ZN6vendor6google5media2c24V1_021BnHwComponentListenerD1Ev
_ZN6vendor6google5media2c24V1_021BnHwComponentListenerD2Ev
_ZN6vendor6google5media2c24V1_021BpHwComponentListener10onWorkDoneERKNS3_10WorkBundleE
_ZN6vendor6google5media2c24V1_021BpHwComponentListener11linkToDeathERKN7android2spINS5_8hardware20hidl_death_recipientEEEm
_ZN6vendor6google5media2c24V1_021BpHwComponentListener12getDebugInfoENSt3__18functionIFvRKN7android4hidl4base4V1_09DebugInfoEEEE
_ZN6vendor6google5media2c24V1_021BpHwComponentListener12getHashChainENSt3__18functionIFvRKN7android8hardware8hidl_vecINS8_10hidl_arrayIhLm32EJEEEEEEEE
_ZN6vendor6google5media2c24V1_021BpHwComponentListener13_hidl_onErrorEPN7android8hardware10IInterfaceEPNS6_7details16HidlInstrumentorENS3_6StatusEj
_ZN6vendor6google5media2c24V1_021BpHwComponentListener13unlinkToDeathERKN7android2spINS5_8hardware20hidl_death_recipientEEE
_ZN6vendor6google5media2c24V1_021BpHwComponentListener14interfaceChainENSt3__18functionIFvRKN7android8hardware8hidl_vecINS8_11hidl_stringEEEEEE
_ZN6vendor6google5media2c24V1_021BpHwComponentListener15_hidl_onTrippedEPN7android8hardware10IInterfaceEPNS6_7details16HidlInstrumentorERKNS6_8hidl_vecINS3_13SettingResultEEE
_ZN6vendor6google5media2c24V1_021BpHwComponentListener16_hidl_onWorkDoneEPN7android8hardware10IInterfaceEPNS6_7details16HidlInstrumentorERKNS3_10WorkBundleE
_ZN6vendor6google5media2c24V1_021BpHwComponentListener19interfaceDescriptorENSt3__18functionIFvRKN7android8hardware11hidl_stringEEEE
_ZN6vendor6google5media2c24V1_021BpHwComponentListener21notifySyspropsChangedEv
_ZN6vendor6google5media2c24V1_021BpHwComponentListener21setHALInstrumentationEv
_ZN6vendor6google5media2c24V1_021BpHwComponentListener4pingEv
_ZN6vendor6google5media2c24V1_021BpHwComponentListener5debugERKN7android8hardware11hidl_handleERKNS6_8hidl_vecINS6_11hidl_stringEEE
_ZN6vendor6google5media2c24V1_021BpHwComponentListener7onErrorENS3_6StatusEj
_ZN6vendor6google5media2c24V1_021BpHwComponentListener9onTrippedERKN7android8hardware8hidl_vecINS3_13SettingResultEEE
_ZN6vendor6google5media2c24V1_021BpHwComponentListenerC1ERKN7android2spINS5_8hardware7IBinderEEE
_ZN6vendor6google5media2c24V1_021BpHwComponentListenerC2ERKN7android2spINS5_8hardware7IBinderEEE
_ZN6vendor6google5media2c24V1_021writeEmbeddedToParcelERKNS3_10InfoBufferEPN7android8hardware6ParcelEmm
_ZN6vendor6google5media2c24V1_021writeEmbeddedToParcelERKNS3_10WorkBundleEPN7android8hardware6ParcelEmm
_ZN6vendor6google5media2c24V1_021writeEmbeddedToParcelERKNS3_13SettingResultEPN7android8hardware6ParcelEmm
_ZN6vendor6google5media2c24V1_021writeEmbeddedToParcelERKNS3_15FieldDescriptor10NamedValueEPN7android8hardware6ParcelEmm
_ZN6vendor6google5media2c24V1_021writeEmbeddedToParcelERKNS3_15FieldDescriptorEPN7android8hardware6ParcelEmm
_ZN6vendor6google5media2c24V1_021writeEmbeddedToParcelERKNS3_15IComponentStore15ComponentTraitsEPN7android8hardware6ParcelEmm
_ZN6vendor6google5media2c24V1_021writeEmbeddedToParcelERKNS3_15ParamDescriptorEPN7android8hardware6ParcelEmm
_ZN6vendor6google5media2c24V1_021writeEmbeddedToParcelERKNS3_16ParamFieldValuesEPN7android8hardware6ParcelEmm
_ZN6vendor6google5media2c24V1_021writeEmbeddedToParcelERKNS3_16StructDescriptorEPN7android8hardware6ParcelEmm
_ZN6vendor6google5media2c24V1_021writeEmbeddedToParcelERKNS3_20FieldSupportedValuesEPN7android8hardware6ParcelEmm
_ZN6vendor6google5media2c24V1_021writeEmbeddedToParcelERKNS3_31FieldSupportedValuesQueryResultEPN7android8hardware6ParcelEmm
_ZN6vendor6google5media2c24V1_021writeEmbeddedToParcelERKNS3_4WorkEPN7android8hardware6ParcelEmm
_ZN6vendor6google5media2c24V1_021writeEmbeddedToParcelERKNS3_5BlockEPN7android8hardware6ParcelEmm
_ZN6vendor6google5media2c24V1_021writeEmbeddedToParcelERKNS3_6BufferEPN7android8hardware6ParcelEmm
_ZN6vendor6google5media2c24V1_021writeEmbeddedToParcelERKNS3_7WorkletEPN7android8hardware6ParcelEmm
_ZN6vendor6google5media2c24V1_021writeEmbeddedToParcelERKNS3_9BaseBlockEPN7android8hardware6ParcelEmm
_ZN6vendor6google5media2c24V1_021writeEmbeddedToParcelERKNS3_9FrameDataEPN7android8hardware6ParcelEmm
_ZN6vendor6google5media2c24V1_022BnHwComponentInterface10onTransactEjRKN7android8hardware6ParcelEPS7_jNSt3__18functionIFvRS7_EEE
_ZN6vendor6google5media2c24V1_022BnHwComponentInterface12getDebugInfoENSt3__18functionIFvRKN7android4hidl4base4V1_09DebugInfoEEEE
_ZN6vendor6google5media2c24V1_022BnHwComponentInterface4pingEv
_ZN6vendor6google5media2c24V1_022BnHwComponentInterfaceC1ERKN7android2spINS3_19IComponentInterfaceEEE
_ZN6vendor6google5media2c24V1_022BnHwComponentInterfaceC2ERKN7android2spINS3_19IComponentInterfaceEEE
_ZN6vendor6google5media2c24V1_022BnHwComponentInterfaceD0Ev
_ZN6vendor6google5media2c24V1_022BnHwComponentInterfaceD1Ev
_ZN6vendor6google5media2c24V1_022BnHwComponentInterfaceD2Ev
_ZN6vendor6google5media2c24V1_022BpHwComponentInterface11linkToDeathERKN7android2spINS5_8hardware20hidl_death_recipientEEEm
_ZN6vendor6google5media2c24V1_022BpHwComponentInterface12getDebugInfoENSt3__18functionIFvRKN7android4hidl4base4V1_09DebugInfoEEEE
_ZN6vendor6google5media2c24V1_022BpHwComponentInterface12getHashChainENSt3__18functionIFvRKN7android8hardware8hidl_vecINS8_10hidl_arrayIhLm32EJEEEEEEEE
_ZN6vendor6google5media2c24V1_022BpHwComponentInterface13unlinkToDeathERKN7android2spINS5_8hardware20hidl_death_recipientEEE
_ZN6vendor6google5media2c24V1_022BpHwComponentInterface14interfaceChainENSt3__18functionIFvRKN7android8hardware8hidl_vecINS8_11hidl_stringEEEEEE
_ZN6vendor6google5media2c24V1_022BpHwComponentInterface19interfaceDescriptorENSt3__18functionIFvRKN7android8hardware11hidl_stringEEEE
_ZN6vendor6google5media2c24V1_022BpHwComponentInterface20querySupportedParamsEjjNSt3__18functionIFvNS3_6StatusERKN7android8hardware8hidl_vecINS3_15ParamDescriptorEEEEEE
_ZN6vendor6google5media2c24V1_022BpHwComponentInterface20querySupportedValuesERKN7android8hardware8hidl_vecINS3_25FieldSupportedValuesQueryEEEbNSt3__18functionIFvNS3_6StatusERKNS7_INS3_31FieldSupportedValuesQueryResultEEEEEE
_ZN6vendor6google5media2c24V1_022BpHwComponentInterface21notifySyspropsChangedEv
_ZN6vendor6google5media2c24V1_022BpHwComponentInterface21setHALInstrumentationEv
_ZN6vendor6google5media2c24V1_022BpHwComponentInterface4pingEv
_ZN6vendor6google5media2c24V1_022BpHwComponentInterface5debugERKN7android8hardware11hidl_handleERKNS6_8hidl_vecINS6_11hidl_stringEEE
_ZN6vendor6google5media2c24V1_022BpHwComponentInterface5queryERKN7android8hardware8hidl_vecIjEEbNSt3__18functionIFvNS3_6StatusERKNS7_IhEEEEE
_ZN6vendor6google5media2c24V1_022BpHwComponentInterface6configERKN7android8hardware8hidl_vecIhEEbNSt3__18functionIFvNS3_6StatusERKNS7_INS3_13SettingResultEEESA_EEE
_ZN6vendor6google5media2c24V1_022BpHwComponentInterface7getNameENSt3__18functionIFvRKN7android8hardware11hidl_stringEEEE
_ZN6vendor6google5media2c24V1_022BpHwComponentInterfaceC1ERKN7android2spINS5_8hardware7IBinderEEE
_ZN6vendor6google5media2c24V1_022BpHwComponentInterfaceC2ERKN7android2spINS5_8hardware7IBinderEEE
_ZN6vendor6google5media2c24V1_022readEmbeddedFromParcelERKNS3_10InfoBufferERKN7android8hardware6ParcelEmm
_ZN6vendor6google5media2c24V1_022readEmbeddedFromParcelERKNS3_10WorkBundleERKN7android8hardware6ParcelEmm
_ZN6vendor6google5media2c24V1_022readEmbeddedFromParcelERKNS3_13SettingResultERKN7android8hardware6ParcelEmm
_ZN6vendor6google5media2c24V1_022readEmbeddedFromParcelERKNS3_15FieldDescriptor10NamedValueERKN7android8hardware6ParcelEmm
_ZN6vendor6google5media2c24V1_022readEmbeddedFromParcelERKNS3_15FieldDescriptorERKN7android8hardware6ParcelEmm
_ZN6vendor6google5media2c24V1_022readEmbeddedFromParcelERKNS3_15IComponentStore15ComponentTraitsERKN7android8hardware6ParcelEmm
_ZN6vendor6google5media2c24V1_022readEmbeddedFromParcelERKNS3_15ParamDescriptorERKN7android8hardware6ParcelEmm
_ZN6vendor6google5media2c24V1_022readEmbeddedFromParcelERKNS3_16ParamFieldValuesERKN7android8hardware6ParcelEmm
_ZN6vendor6google5media2c24V1_022readEmbeddedFromParcelERKNS3_16StructDescriptorERKN7android8hardware6ParcelEmm
_ZN6vendor6google5media2c24V1_022readEmbeddedFromParcelERKNS3_20FieldSupportedValuesERKN7android8hardware6ParcelEmm
_ZN6vendor6google5media2c24V1_022readEmbeddedFromParcelERKNS3_31FieldSupportedValuesQueryResultERKN7android8hardware6ParcelEmm
_ZN6vendor6google5media2c24V1_022readEmbeddedFromParcelERKNS3_4WorkERKN7android8hardware6ParcelEmm
_ZN6vendor6google5media2c24V1_022readEmbeddedFromParcelERKNS3_5BlockERKN7android8hardware6ParcelEmm
_ZN6vendor6google5media2c24V1_022readEmbeddedFromParcelERKNS3_6BufferERKN7android8hardware6ParcelEmm
_ZN6vendor6google5media2c24V1_022readEmbeddedFromParcelERKNS3_7WorkletERKN7android8hardware6ParcelEmm
_ZN6vendor6google5media2c24V1_022readEmbeddedFromParcelERKNS3_9BaseBlockERKN7android8hardware6ParcelEmm
_ZN6vendor6google5media2c24V1_022readEmbeddedFromParcelERKNS3_9FrameDataERKN7android8hardware6ParcelEmm
_ZN6vendor6google5media2c24V1_023IInputSurfaceConnection10descriptorE
_ZN6vendor6google5media2c24V1_023IInputSurfaceConnection10getServiceERKNSt3__112basic_stringIcNS5_11char_traitsIcEENS5_9allocatorIcEEEEb
_ZN6vendor6google5media2c24V1_023IInputSurfaceConnection11linkToDeathERKN7android2spINS5_8hardware20hidl_death_recipientEEEm
_ZN6vendor6google5media2c24V1_023IInputSurfaceConnection12getDebugInfoENSt3__18functionIFvRKN7android4hidl4base4V1_09DebugInfoEEEE
_ZN6vendor6google5media2c24V1_023IInputSurfaceConnection12getHashChainENSt3__18functionIFvRKN7android8hardware8hidl_vecINS8_10hidl_arrayIhLm32EJEEEEEEEE
_ZN6vendor6google5media2c24V1_023IInputSurfaceConnection13tryGetServiceERKNSt3__112basic_stringIcNS5_11char_traitsIcEENS5_9allocatorIcEEEEb
_ZN6vendor6google5media2c24V1_023IInputSurfaceConnection13unlinkToDeathERKN7android2spINS5_8hardware20hidl_death_recipientEEE
_ZN6vendor6google5media2c24V1_023IInputSurfaceConnection14interfaceChainENSt3__18functionIFvRKN7android8hardware8hidl_vecINS8_11hidl_stringEEEEEE
_ZN6vendor6google5media2c24V1_023IInputSurfaceConnection17registerAsServiceERKNSt3__112basic_stringIcNS5_11char_traitsIcEENS5_9allocatorIcEEEE
_ZN6vendor6google5media2c24V1_023IInputSurfaceConnection19interfaceDescriptorENSt3__18functionIFvRKN7android8hardware11hidl_stringEEEE
_ZN6vendor6google5media2c24V1_023IInputSurfaceConnection21notifySyspropsChangedEv
_ZN6vendor6google5media2c24V1_023IInputSurfaceConnection21setHALInstrumentationEv
_ZN6vendor6google5media2c24V1_023IInputSurfaceConnection24registerForNotificationsERKNSt3__112basic_stringIcNS5_11char_traitsIcEENS5_9allocatorIcEEEERKN7android2spINSE_4hidl7manager4V1_020IServiceNotificationEEE
_ZN6vendor6google5media2c24V1_023IInputSurfaceConnection4pingEv
_ZN6vendor6google5media2c24V1_023IInputSurfaceConnection5debugERKN7android8hardware11hidl_handleERKNS6_8hidl_vecINS6_11hidl_stringEEE
_ZN6vendor6google5media2c24V1_023IInputSurfaceConnection8castFromERKN7android2spINS5_4hidl4base4V1_05IBaseEEEb
_ZN6vendor6google5media2c24V1_023IInputSurfaceConnection8castFromERKN7android2spIS4_EEb
_ZN6vendor6google5media2c24V1_024BsInputSurfaceConnection13addOnewayTaskENSt3__18functionIFvvEEE
_ZN6vendor6google5media2c24V1_024BsInputSurfaceConnectionC1EN7android2spINS3_23IInputSurfaceConnectionEEE
_ZN6vendor6google5media2c24V1_024BsInputSurfaceConnectionC2EN7android2spINS3_23IInputSurfaceConnectionEEE
_ZN6vendor6google5media2c24V1_026BnHwInputSurfaceConnection10onTransactEjRKN7android8hardware6ParcelEPS7_jNSt3__18functionIFvRS7_EEE
_ZN6vendor6google5media2c24V1_026BnHwInputSurfaceConnection12getDebugInfoENSt3__18functionIFvRKN7android4hidl4base4V1_09DebugInfoEEEE
_ZN6vendor6google5media2c24V1_026BnHwInputSurfaceConnection16_hidl_disconnectEPN7android4hidl4base4V1_08BnHwBaseERKNS5_8hardware6ParcelEPSC_NSt3__18functionIFvRSC_EEE
_ZN6vendor6google5media2c24V1_026BnHwInputSurfaceConnection4pingEv
_ZN6vendor6google5media2c24V1_026BnHwInputSurfaceConnectionC1ERKN7android2spINS3_23IInputSurfaceConnectionEEE
_ZN6vendor6google5media2c24V1_026BnHwInputSurfaceConnectionC2ERKN7android2spINS3_23IInputSurfaceConnectionEEE
_ZN6vendor6google5media2c24V1_026BnHwInputSurfaceConnectionD0Ev
_ZN6vendor6google5media2c24V1_026BnHwInputSurfaceConnectionD1Ev
_ZN6vendor6google5media2c24V1_026BnHwInputSurfaceConnectionD2Ev
_ZN6vendor6google5media2c24V1_026BpHwInputSurfaceConnection10disconnectEv
_ZN6vendor6google5media2c24V1_026BpHwInputSurfaceConnection11linkToDeathERKN7android2spINS5_8hardware20hidl_death_recipientEEEm
_ZN6vendor6google5media2c24V1_026BpHwInputSurfaceConnection12getDebugInfoENSt3__18functionIFvRKN7android4hidl4base4V1_09DebugInfoEEEE
_ZN6vendor6google5media2c24V1_026BpHwInputSurfaceConnection12getHashChainENSt3__18functionIFvRKN7android8hardware8hidl_vecINS8_10hidl_arrayIhLm32EJEEEEEEEE
_ZN6vendor6google5media2c24V1_026BpHwInputSurfaceConnection13unlinkToDeathERKN7android2spINS5_8hardware20hidl_death_recipientEEE
_ZN6vendor6google5media2c24V1_026BpHwInputSurfaceConnection14interfaceChainENSt3__18functionIFvRKN7android8hardware8hidl_vecINS8_11hidl_stringEEEEEE
_ZN6vendor6google5media2c24V1_026BpHwInputSurfaceConnection16_hidl_disconnectEPN7android8hardware10IInterfaceEPNS6_7details16HidlInstrumentorE
_ZN6vendor6google5media2c24V1_026BpHwInputSurfaceConnection19interfaceDescriptorENSt3__18functionIFvRKN7android8hardware11hidl_stringEEEE
_ZN6vendor6google5media2c24V1_026BpHwInputSurfaceConnection21notifySyspropsChangedEv
_ZN6vendor6google5media2c24V1_026BpHwInputSurfaceConnection21setHALInstrumentationEv
_ZN6vendor6google5media2c24V1_026BpHwInputSurfaceConnection4pingEv
_ZN6vendor6google5media2c24V1_026BpHwInputSurfaceConnection5debugERKN7android8hardware11hidl_handleERKNS6_8hidl_vecINS6_11hidl_stringEEE
_ZN6vendor6google5media2c24V1_026BpHwInputSurfaceConnectionC1ERKN7android2spINS5_8hardware7IBinderEEE
_ZN6vendor6google5media2c24V1_026BpHwInputSurfaceConnectionC2ERKN7android2spINS5_8hardware7IBinderEEE
_ZN6vendor6google5media2c24V1_08toStringENS3_13SettingResult7FailureE
_ZN6vendor6google5media2c24V1_08toStringENS3_15FieldDescriptor4TypeE
_ZN6vendor6google5media2c24V1_08toStringENS3_15IComponentStore15ComponentTraits4KindE
_ZN6vendor6google5media2c24V1_08toStringENS3_15IComponentStore15ComponentTraits6DomainE
_ZN6vendor6google5media2c24V1_08toStringENS3_15ParamDescriptor6AttribE
_ZN6vendor6google5media2c24V1_08toStringENS3_20FieldSupportedValues4TypeE
_ZN6vendor6google5media2c24V1_08toStringENS3_25FieldSupportedValuesQuery4TypeE
_ZN6vendor6google5media2c24V1_08toStringENS3_6StatusE
_ZN6vendor6google5media2c24V1_08toStringENS3_9BaseBlock4TypeE
_ZN6vendor6google5media2c24V1_08toStringENS3_9FrameData5FlagsE
_ZN6vendor6google5media2c24V1_08toStringERKN7android2spINS3_10IComponentEEE
_ZN6vendor6google5media2c24V1_08toStringERKN7android2spINS3_13IConfigurableEEE
_ZN6vendor6google5media2c24V1_08toStringERKN7android2spINS3_13IInputSurfaceEEE
_ZN6vendor6google5media2c24V1_08toStringERKN7android2spINS3_15IComponentStoreEEE
_ZN6vendor6google5media2c24V1_08toStringERKN7android2spINS3_18IComponentListenerEEE
_ZN6vendor6google5media2c24V1_08toStringERKN7android2spINS3_19IComponentInterfaceEEE
_ZN6vendor6google5media2c24V1_08toStringERKN7android2spINS3_23IInputSurfaceConnectionEEE
_ZN6vendor6google5media2c24V1_08toStringERKNS3_10InfoBufferE
_ZN6vendor6google5media2c24V1_08toStringERKNS3_10ParamFieldE
_ZN6vendor6google5media2c24V1_08toStringERKNS3_10WorkBundleE
_ZN6vendor6google5media2c24V1_08toStringERKNS3_11WorkOrdinalE
_ZN6vendor6google5media2c24V1_08toStringERKNS3_13SettingResultE
_ZN6vendor6google5media2c24V1_08toStringERKNS3_15FieldDescriptor10NamedValueE
_ZN6vendor6google5media2c24V1_08toStringERKNS3_15FieldDescriptorE
_ZN6vendor6google5media2c24V1_08toStringERKNS3_15IComponentStore15ComponentTraitsE
_ZN6vendor6google5media2c24V1_08toStringERKNS3_15ParamDescriptorE
_ZN6vendor6google5media2c24V1_08toStringERKNS3_16ParamFieldValuesE
_ZN6vendor6google5media2c24V1_08toStringERKNS3_16StructDescriptorE
_ZN6vendor6google5media2c24V1_08toStringERKNS3_20FieldSupportedValues5RangeE
_ZN6vendor6google5media2c24V1_08toStringERKNS3_20FieldSupportedValuesE
_ZN6vendor6google5media2c24V1_08toStringERKNS3_25FieldSupportedValuesQueryE
_ZN6vendor6google5media2c24V1_08toStringERKNS3_31FieldSupportedValuesQueryResultE
_ZN6vendor6google5media2c24V1_08toStringERKNS3_4WorkE
_ZN6vendor6google5media2c24V1_08toStringERKNS3_5BlockE
_ZN6vendor6google5media2c24V1_08toStringERKNS3_6BufferE
_ZN6vendor6google5media2c24V1_08toStringERKNS3_7FieldIdE
_ZN6vendor6google5media2c24V1_08toStringERKNS3_7WorkletE
_ZN6vendor6google5media2c24V1_08toStringERKNS3_9BaseBlockE
_ZN6vendor6google5media2c24V1_08toStringERKNS3_9FrameDataE
_ZN6vendor6google5media2c24V1_08toStringINS3_13SettingResult7FailureEEENSt3__112basic_stringIcNS7_11char_traitsIcEENS7_9allocatorIcEEEEj
_ZN6vendor6google5media2c24V1_08toStringINS3_15FieldDescriptor4TypeEEENSt3__112basic_stringIcNS7_11char_traitsIcEENS7_9allocatorIcEEEEj
_ZN6vendor6google5media2c24V1_08toStringINS3_15IComponentStore15ComponentTraits4KindEEENSt3__112basic_stringIcNS8_11char_traitsIcEENS8_9allocatorIcEEEEj
_ZN6vendor6google5media2c24V1_08toStringINS3_15IComponentStore15ComponentTraits6DomainEEENSt3__112basic_stringIcNS8_11char_traitsIcEENS8_9allocatorIcEEEEj
_ZN6vendor6google5media2c24V1_08toStringINS3_15ParamDescriptor6AttribEEENSt3__112basic_stringIcNS7_11char_traitsIcEENS7_9allocatorIcEEEEj
_ZN6vendor6google5media2c24V1_08toStringINS3_20FieldSupportedValues4TypeEEENSt3__112basic_stringIcNS7_11char_traitsIcEENS7_9allocatorIcEEEEi
_ZN6vendor6google5media2c24V1_08toStringINS3_25FieldSupportedValuesQuery4TypeEEENSt3__112basic_stringIcNS7_11char_traitsIcEENS7_9allocatorIcEEEEj
_ZN6vendor6google5media2c24V1_08toStringINS3_6StatusEEENSt3__112basic_stringIcNS6_11char_traitsIcEENS6_9allocatorIcEEEEi
_ZN6vendor6google5media2c24V1_08toStringINS3_9BaseBlock4TypeEEENSt3__112basic_stringIcNS7_11char_traitsIcEENS7_9allocatorIcEEEEi
_ZN6vendor6google5media2c24V1_08toStringINS3_9FrameData5FlagsEEENSt3__112basic_stringIcNS7_11char_traitsIcEENS7_9allocatorIcEEEEj
_ZN6vendor6google5media2c24V1_0eqERKNS3_10ParamFieldES6_
_ZN6vendor6google5media2c24V1_0eqERKNS3_11WorkOrdinalES6_
_ZN6vendor6google5media2c24V1_0eqERKNS3_13SettingResultES6_
_ZN6vendor6google5media2c24V1_0eqERKNS3_15FieldDescriptor10NamedValueES7_
_ZN6vendor6google5media2c24V1_0eqERKNS3_15FieldDescriptorES6_
_ZN6vendor6google5media2c24V1_0eqERKNS3_15IComponentStore15ComponentTraitsES7_
_ZN6vendor6google5media2c24V1_0eqERKNS3_15ParamDescriptorES6_
_ZN6vendor6google5media2c24V1_0eqERKNS3_16ParamFieldValuesES6_
_ZN6vendor6google5media2c24V1_0eqERKNS3_16StructDescriptorES6_
_ZN6vendor6google5media2c24V1_0eqERKNS3_20FieldSupportedValues5RangeES7_
_ZN6vendor6google5media2c24V1_0eqERKNS3_20FieldSupportedValuesES6_
_ZN6vendor6google5media2c24V1_0eqERKNS3_25FieldSupportedValuesQueryES6_
_ZN6vendor6google5media2c24V1_0eqERKNS3_31FieldSupportedValuesQueryResultES6_
_ZN6vendor6google5media2c24V1_0eqERKNS3_7FieldIdES6_
_ZN6vendor6google5media2c24V1_0neERKNS3_10ParamFieldES6_
_ZN6vendor6google5media2c24V1_0neERKNS3_11WorkOrdinalES6_
_ZN6vendor6google5media2c24V1_0neERKNS3_13SettingResultES6_
_ZN6vendor6google5media2c24V1_0neERKNS3_15FieldDescriptor10NamedValueES7_
_ZN6vendor6google5media2c24V1_0neERKNS3_15FieldDescriptorES6_
_ZN6vendor6google5media2c24V1_0neERKNS3_15IComponentStore15ComponentTraitsES7_
_ZN6vendor6google5media2c24V1_0neERKNS3_15ParamDescriptorES6_
_ZN6vendor6google5media2c24V1_0neERKNS3_16ParamFieldValuesES6_
_ZN6vendor6google5media2c24V1_0neERKNS3_16StructDescriptorES6_
_ZN6vendor6google5media2c24V1_0neERKNS3_20FieldSupportedValues5RangeES7_
_ZN6vendor6google5media2c24V1_0neERKNS3_20FieldSupportedValuesES6_
_ZN6vendor6google5media2c24V1_0neERKNS3_25FieldSupportedValuesQueryES6_
_ZN6vendor6google5media2c24V1_0neERKNS3_31FieldSupportedValuesQueryResultES6_
_ZN6vendor6google5media2c24V1_0neERKNS3_7FieldIdES6_
_ZTCN6vendor6google5media2c24V1_010IComponentE0_N7android4hidl4base4V1_05IBaseE
_ZTCN6vendor6google5media2c24V1_010IComponentE0_NS3_13IConfigurableE
_ZTCN6vendor6google5media2c24V1_010IComponentE0_NS3_19IComponentInterfaceE
_ZTCN6vendor6google5media2c24V1_013BnHwComponentE0_N7android4hidl4base4V1_08BnHwBaseE
_ZTCN6vendor6google5media2c24V1_013BnHwComponentE0_N7android8hardware7IBinderE
_ZTCN6vendor6google5media2c24V1_013BnHwComponentE0_N7android8hardware9BHwBinderE
_ZTCN6vendor6google5media2c24V1_013BpHwComponentE0_N7android4hidl4base4V1_05IBaseE
_ZTCN6vendor6google5media2c24V1_013BpHwComponentE0_N7android8hardware11BpInterfaceINS3_10IComponentEEE
_ZTCN6vendor6google5media2c24V1_013BpHwComponentE0_NS3_10IComponentE
_ZTCN6vendor6google5media2c24V1_013BpHwComponentE0_NS3_13IConfigurableE
_ZTCN6vendor6google5media2c24V1_013BpHwComponentE0_NS3_19IComponentInterfaceE
_ZTCN6vendor6google5media2c24V1_013BpHwComponentE16_N7android8hardware11BpHwRefBaseE
_ZTCN6vendor6google5media2c24V1_013BpHwComponentE8_N7android8hardware10IInterfaceE
_ZTCN6vendor6google5media2c24V1_013IConfigurableE0_N7android4hidl4base4V1_05IBaseE
_ZTCN6vendor6google5media2c24V1_013IInputSurfaceE0_N7android4hidl4base4V1_05IBaseE
_ZTCN6vendor6google5media2c24V1_013IInputSurfaceE0_N7android8hardware8graphics11bufferqueue4V1_022IGraphicBufferProducerE
_ZTCN6vendor6google5media2c24V1_015IComponentStoreE0_N7android4hidl4base4V1_05IBaseE
_ZTCN6vendor6google5media2c24V1_015IComponentStoreE0_NS3_13IConfigurableE
_ZTCN6vendor6google5media2c24V1_016BnHwConfigurableE0_N7android4hidl4base4V1_08BnHwBaseE
_ZTCN6vendor6google5media2c24V1_016BnHwConfigurableE0_N7android8hardware7IBinderE
_ZTCN6vendor6google5media2c24V1_016BnHwConfigurableE0_N7android8hardware9BHwBinderE
_ZTCN6vendor6google5media2c24V1_016BnHwInputSurfaceE0_N7android4hidl4base4V1_08BnHwBaseE
_ZTCN6vendor6google5media2c24V1_016BnHwInputSurfaceE0_N7android8hardware7IBinderE
_ZTCN6vendor6google5media2c24V1_016BnHwInputSurfaceE0_N7android8hardware9BHwBinderE
_ZTCN6vendor6google5media2c24V1_016BpHwConfigurableE0_N7android4hidl4base4V1_05IBaseE
_ZTCN6vendor6google5media2c24V1_016BpHwConfigurableE0_N7android8hardware11BpInterfaceINS3_13IConfigurableEEE
_ZTCN6vendor6google5media2c24V1_016BpHwConfigurableE0_NS3_13IConfigurableE
_ZTCN6vendor6google5media2c24V1_016BpHwConfigurableE16_N7android8hardware11BpHwRefBaseE
_ZTCN6vendor6google5media2c24V1_016BpHwConfigurableE8_N7android8hardware10IInterfaceE
_ZTCN6vendor6google5media2c24V1_016BpHwInputSurfaceE0_N7android4hidl4base4V1_05IBaseE
_ZTCN6vendor6google5media2c24V1_016BpHwInputSurfaceE0_N7android8hardware11BpInterfaceINS3_13IInputSurfaceEEE
_ZTCN6vendor6google5media2c24V1_016BpHwInputSurfaceE0_N7android8hardware8graphics11bufferqueue4V1_022IGraphicBufferProducerE
_ZTCN6vendor6google5media2c24V1_016BpHwInputSurfaceE0_NS3_13IInputSurfaceE
_ZTCN6vendor6google5media2c24V1_016BpHwInputSurfaceE16_N7android8hardware11BpHwRefBaseE
_ZTCN6vendor6google5media2c24V1_016BpHwInputSurfaceE8_N7android8hardware10IInterfaceE
_ZTCN6vendor6google5media2c24V1_018BnHwComponentStoreE0_N7android4hidl4base4V1_08BnHwBaseE
_ZTCN6vendor6google5media2c24V1_018BnHwComponentStoreE0_N7android8hardware7IBinderE
_ZTCN6vendor6google5media2c24V1_018BnHwComponentStoreE0_N7android8hardware9BHwBinderE
_ZTCN6vendor6google5media2c24V1_018BpHwComponentStoreE0_N7android4hidl4base4V1_05IBaseE
_ZTCN6vendor6google5media2c24V1_018BpHwComponentStoreE0_N7android8hardware11BpInterfaceINS3_15IComponentStoreEEE
_ZTCN6vendor6google5media2c24V1_018BpHwComponentStoreE0_NS3_13IConfigurableE
_ZTCN6vendor6google5media2c24V1_018BpHwComponentStoreE0_NS3_15IComponentStoreE
_ZTCN6vendor6google5media2c24V1_018BpHwComponentStoreE16_N7android8hardware11BpHwRefBaseE
_ZTCN6vendor6google5media2c24V1_018BpHwComponentStoreE8_N7android8hardware10IInterfaceE
_ZTCN6vendor6google5media2c24V1_018IComponentListenerE0_N7android4hidl4base4V1_05IBaseE
_ZTCN6vendor6google5media2c24V1_019IComponentInterfaceE0_N7android4hidl4base4V1_05IBaseE
_ZTCN6vendor6google5media2c24V1_019IComponentInterfaceE0_NS3_13IConfigurableE
_ZTCN6vendor6google5media2c24V1_021BnHwComponentListenerE0_N7android4hidl4base4V1_08BnHwBaseE
_ZTCN6vendor6google5media2c24V1_021BnHwComponentListenerE0_N7android8hardware7IBinderE
_ZTCN6vendor6google5media2c24V1_021BnHwComponentListenerE0_N7android8hardware9BHwBinderE
_ZTCN6vendor6google5media2c24V1_021BpHwComponentListenerE0_N7android4hidl4base4V1_05IBaseE
_ZTCN6vendor6google5media2c24V1_021BpHwComponentListenerE0_N7android8hardware11BpInterfaceINS3_18IComponentListenerEEE
_ZTCN6vendor6google5media2c24V1_021BpHwComponentListenerE0_NS3_18IComponentListenerE
_ZTCN6vendor6google5media2c24V1_021BpHwComponentListenerE16_N7android8hardware11BpHwRefBaseE
_ZTCN6vendor6google5media2c24V1_021BpHwComponentListenerE8_N7android8hardware10IInterfaceE
_ZTCN6vendor6google5media2c24V1_022BnHwComponentInterfaceE0_N7android4hidl4base4V1_08BnHwBaseE
_ZTCN6vendor6google5media2c24V1_022BnHwComponentInterfaceE0_N7android8hardware7IBinderE
_ZTCN6vendor6google5media2c24V1_022BnHwComponentInterfaceE0_N7android8hardware9BHwBinderE
_ZTCN6vendor6google5media2c24V1_022BpHwComponentInterfaceE0_N7android4hidl4base4V1_05IBaseE
_ZTCN6vendor6google5media2c24V1_022BpHwComponentInterfaceE0_N7android8hardware11BpInterfaceINS3_19IComponentInterfaceEEE
_ZTCN6vendor6google5media2c24V1_022BpHwComponentInterfaceE0_NS3_13IConfigurableE
_ZTCN6vendor6google5media2c24V1_022BpHwComponentInterfaceE0_NS3_19IComponentInterfaceE
_ZTCN6vendor6google5media2c24V1_022BpHwComponentInterfaceE16_N7android8hardware11BpHwRefBaseE
_ZTCN6vendor6google5media2c24V1_022BpHwComponentInterfaceE8_N7android8hardware10IInterfaceE
_ZTCN6vendor6google5media2c24V1_023IInputSurfaceConnectionE0_N7android4hidl4base4V1_05IBaseE
_ZTCN6vendor6google5media2c24V1_026BnHwInputSurfaceConnectionE0_N7android4hidl4base4V1_08BnHwBaseE
_ZTCN6vendor6google5media2c24V1_026BnHwInputSurfaceConnectionE0_N7android8hardware7IBinderE
_ZTCN6vendor6google5media2c24V1_026BnHwInputSurfaceConnectionE0_N7android8hardware9BHwBinderE
_ZTCN6vendor6google5media2c24V1_026BpHwInputSurfaceConnectionE0_N7android4hidl4base4V1_05IBaseE
_ZTCN6vendor6google5media2c24V1_026BpHwInputSurfaceConnectionE0_N7android8hardware11BpInterfaceINS3_23IInputSurfaceConnectionEEE
_ZTCN6vendor6google5media2c24V1_026BpHwInputSurfaceConnectionE0_NS3_23IInputSurfaceConnectionE
_ZTCN6vendor6google5media2c24V1_026BpHwInputSurfaceConnectionE16_N7android8hardware11BpHwRefBaseE
_ZTCN6vendor6google5media2c24V1_026BpHwInputSurfaceConnectionE8_N7android8hardware10IInterfaceE
_ZTTN6vendor6google5media2c24V1_010IComponentE
_ZTTN6vendor6google5media2c24V1_013BnHwComponentE
_ZTTN6vendor6google5media2c24V1_013BpHwComponentE
_ZTTN6vendor6google5media2c24V1_013IConfigurableE
_ZTTN6vendor6google5media2c24V1_013IInputSurfaceE
_ZTTN6vendor6google5media2c24V1_015IComponentStoreE
_ZTTN6vendor6google5media2c24V1_016BnHwConfigurableE
_ZTTN6vendor6google5media2c24V1_016BnHwInputSurfaceE
_ZTTN6vendor6google5media2c24V1_016BpHwConfigurableE
_ZTTN6vendor6google5media2c24V1_016BpHwInputSurfaceE
_ZTTN6vendor6google5media2c24V1_018BnHwComponentStoreE
_ZTTN6vendor6google5media2c24V1_018BpHwComponentStoreE
_ZTTN6vendor6google5media2c24V1_018IComponentListenerE
_ZTTN6vendor6google5media2c24V1_019IComponentInterfaceE
_ZTTN6vendor6google5media2c24V1_021BnHwComponentListenerE
_ZTTN6vendor6google5media2c24V1_021BpHwComponentListenerE
_ZTTN6vendor6google5media2c24V1_022BnHwComponentInterfaceE
_ZTTN6vendor6google5media2c24V1_022BpHwComponentInterfaceE
_ZTTN6vendor6google5media2c24V1_023IInputSurfaceConnectionE
_ZTTN6vendor6google5media2c24V1_026BnHwInputSurfaceConnectionE
_ZTTN6vendor6google5media2c24V1_026BpHwInputSurfaceConnectionE
_ZTVN6vendor6google5media2c24V1_010IComponentE
_ZTVN6vendor6google5media2c24V1_013BnHwComponentE
_ZTVN6vendor6google5media2c24V1_013BpHwComponentE
_ZTVN6vendor6google5media2c24V1_013IConfigurableE
_ZTVN6vendor6google5media2c24V1_013IInputSurfaceE
_ZTVN6vendor6google5media2c24V1_015IComponentStoreE
_ZTVN6vendor6google5media2c24V1_016BnHwConfigurableE
_ZTVN6vendor6google5media2c24V1_016BnHwInputSurfaceE
_ZTVN6vendor6google5media2c24V1_016BpHwConfigurableE
_ZTVN6vendor6google5media2c24V1_016BpHwInputSurfaceE
_ZTVN6vendor6google5media2c24V1_018BnHwComponentStoreE
_ZTVN6vendor6google5media2c24V1_018BpHwComponentStoreE
_ZTVN6vendor6google5media2c24V1_018IComponentListenerE
_ZTVN6vendor6google5media2c24V1_019IComponentInterfaceE
_ZTVN6vendor6google5media2c24V1_021BnHwComponentListenerE
_ZTVN6vendor6google5media2c24V1_021BpHwComponentListenerE
_ZTVN6vendor6google5media2c24V1_022BnHwComponentInterfaceE
_ZTVN6vendor6google5media2c24V1_022BpHwComponentInterfaceE
_ZTVN6vendor6google5media2c24V1_023IInputSurfaceConnectionE
_ZTVN6vendor6google5media2c24V1_026BnHwInputSurfaceConnectionE
_ZTVN6vendor6google5media2c24V1_026BpHwInputSurfaceConnectionE
_ZThn32_N6vendor6google5media2c24V1_013BnHwComponentD0Ev
_ZThn32_N6vendor6google5media2c24V1_013BnHwComponentD1Ev
_ZThn32_N6vendor6google5media2c24V1_016BnHwConfigurableD0Ev
_ZThn32_N6vendor6google5media2c24V1_016BnHwConfigurableD1Ev
_ZThn32_N6vendor6google5media2c24V1_016BnHwInputSurfaceD0Ev
_ZThn32_N6vendor6google5media2c24V1_016BnHwInputSurfaceD1Ev
_ZThn32_N6vendor6google5media2c24V1_018BnHwComponentStoreD0Ev
_ZThn32_N6vendor6google5media2c24V1_018BnHwComponentStoreD1Ev
_ZThn32_N6vendor6google5media2c24V1_021BnHwComponentListenerD0Ev
_ZThn32_N6vendor6google5media2c24V1_021BnHwComponentListenerD1Ev
_ZThn32_N6vendor6google5media2c24V1_022BnHwComponentInterfaceD0Ev
_ZThn32_N6vendor6google5media2c24V1_022BnHwComponentInterfaceD1Ev
_ZThn32_N6vendor6google5media2c24V1_026BnHwInputSurfaceConnectionD0Ev
_ZThn32_N6vendor6google5media2c24V1_026BnHwInputSurfaceConnectionD1Ev
_ZTv0_n24_N6vendor6google5media2c24V1_013BnHwComponentD0Ev
_ZTv0_n24_N6vendor6google5media2c24V1_013BnHwComponentD1Ev
_ZTv0_n24_N6vendor6google5media2c24V1_016BnHwConfigurableD0Ev
_ZTv0_n24_N6vendor6google5media2c24V1_016BnHwConfigurableD1Ev
_ZTv0_n24_N6vendor6google5media2c24V1_016BnHwInputSurfaceD0Ev
_ZTv0_n24_N6vendor6google5media2c24V1_016BnHwInputSurfaceD1Ev
_ZTv0_n24_N6vendor6google5media2c24V1_018BnHwComponentStoreD0Ev
_ZTv0_n24_N6vendor6google5media2c24V1_018BnHwComponentStoreD1Ev
_ZTv0_n24_N6vendor6google5media2c24V1_021BnHwComponentListenerD0Ev
_ZTv0_n24_N6vendor6google5media2c24V1_021BnHwComponentListenerD1Ev
_ZTv0_n24_N6vendor6google5media2c24V1_022BnHwComponentInterfaceD0Ev
_ZTv0_n24_N6vendor6google5media2c24V1_022BnHwComponentInterfaceD1Ev
_ZTv0_n24_N6vendor6google5media2c24V1_026BnHwInputSurfaceConnectionD0Ev
_ZTv0_n24_N6vendor6google5media2c24V1_026BnHwInputSurfaceConnectionD1Ev
