_ZN7android16ProcessCallStack5clearEv
_ZN7android16ProcessCallStack6updateEv
_ZN7android16ProcessCallStackC1ERKS0_
_ZN7android16ProcessCallStackC1Ev
_ZN7android16ProcessCallStackC2ERKS0_
_ZN7android16ProcessCallStackC2Ev
_ZN7android16ProcessCallStackD1Ev
_ZN7android16ProcessCallStackD2Ev
_ZN7android9CallStack6updateEii
_ZN7android9CallStackC1EPKci
_ZN7android9CallStackC1Ev
_ZN7android9CallStackC2EPKci
_ZN7android9CallStackC2Ev
_ZN7android9CallStackD1Ev
_ZN7android9CallStackD2Ev
_ZNK7android16ProcessCallStack13printInternalERNS_7PrinterES2_
_ZNK7android16ProcessCallStack3logEPKc19android_LogPriorityS2_
_ZNK7android16ProcessCallStack4dumpEiiPKc
_ZNK7android16ProcessCallStack4sizeEv
_ZNK7android16ProcessCallStack5printERNS_7PrinterE
_ZNK7android16ProcessCallStack8toStringEPKc
_ZNK7android9CallStack3logEPKc19android_LogPriorityS2_
_ZNK7android9CallStack4dumpEiiPKc
_ZNK7android9CallStack5printERNS_7PrinterE
_ZNK7android9CallStack8toStringEPKc
__ubsan_handle_add_overflow_minimal
__ubsan_handle_add_overflow_minimal_abort
__ubsan_handle_builtin_unreachable_minimal
__ubsan_handle_cfi_check_fail_minimal
__ubsan_handle_cfi_check_fail_minimal_abort
__ubsan_handle_divrem_overflow_minimal
__ubsan_handle_divrem_overflow_minimal_abort
__ubsan_handle_float_cast_overflow_minimal
__ubsan_handle_float_cast_overflow_minimal_abort
__ubsan_handle_function_type_mismatch_minimal
__ubsan_handle_function_type_mismatch_minimal_abort
__ubsan_handle_invalid_builtin_minimal
__ubsan_handle_invalid_builtin_minimal_abort
__ubsan_handle_load_invalid_value_minimal
__ubsan_handle_load_invalid_value_minimal_abort
__ubsan_handle_missing_return_minimal
__ubsan_handle_mul_overflow_minimal
__ubsan_handle_mul_overflow_minimal_abort
__ubsan_handle_negate_overflow_minimal
__ubsan_handle_negate_overflow_minimal_abort
__ubsan_handle_nonnull_arg_minimal
__ubsan_handle_nonnull_arg_minimal_abort
__ubsan_handle_nonnull_return_minimal
__ubsan_handle_nonnull_return_minimal_abort
__ubsan_handle_nullability_arg_minimal
__ubsan_handle_nullability_arg_minimal_abort
__ubsan_handle_nullability_return_minimal
__ubsan_handle_nullability_return_minimal_abort
__ubsan_handle_out_of_bounds_minimal
__ubsan_handle_out_of_bounds_minimal_abort
__ubsan_handle_pointer_overflow_minimal
__ubsan_handle_pointer_overflow_minimal_abort
__ubsan_handle_shift_out_of_bounds_minimal
__ubsan_handle_shift_out_of_bounds_minimal_abort
__ubsan_handle_sub_overflow_minimal
__ubsan_handle_sub_overflow_minimal_abort
__ubsan_handle_type_mismatch_minimal
__ubsan_handle_type_mismatch_minimal_abort
__ubsan_handle_vla_bound_not_positive_minimal
__ubsan_handle_vla_bound_not_positive_minimal_abort
