_ZN7android8hardware6camera6common4V1_021writeEmbeddedToParcelERKNS3_16VendorTagSectionEPNS0_6ParcelEmm
_ZN7android8hardware6camera6common4V1_021writeEmbeddedToParcelERKNS3_18CameraResourceCostEPNS0_6ParcelEmm
_ZN7android8hardware6camera6common4V1_021writeEmbeddedToParcelERKNS3_9VendorTagEPNS0_6ParcelEmm
_ZN7android8hardware6camera6common4V1_022readEmbeddedFromParcelERKNS3_16VendorTagSectionERKNS0_6ParcelEmm
_ZN7android8hardware6camera6common4V1_022readEmbeddedFromParcelERKNS3_18CameraResourceCostERKNS0_6ParcelEmm
_ZN7android8hardware6camera6common4V1_022readEmbeddedFromParcelERKNS3_9VendorTagERKNS0_6ParcelEmm
_ZN7android8hardware6camera6common4V1_08toStringENS3_13TagBoundaryIdE
_ZN7android8hardware6camera6common4V1_08toStringENS3_15TorchModeStatusE
_ZN7android8hardware6camera6common4V1_08toStringENS3_18CameraDeviceStatusE
_ZN7android8hardware6camera6common4V1_08toStringENS3_18CameraMetadataTypeE
_ZN7android8hardware6camera6common4V1_08toStringENS3_6StatusE
_ZN7android8hardware6camera6common4V1_08toStringENS3_9TorchModeE
_ZN7android8hardware6camera6common4V1_08toStringERKNS3_16VendorTagSectionE
_ZN7android8hardware6camera6common4V1_08toStringERKNS3_18CameraResourceCostE
_ZN7android8hardware6camera6common4V1_08toStringERKNS3_9VendorTagE
_ZN7android8hardware6camera6common4V1_08toStringINS3_13TagBoundaryIdEEENSt3__112basic_stringIcNS6_11char_traitsIcEENS6_9allocatorIcEEEEj
_ZN7android8hardware6camera6common4V1_08toStringINS3_15TorchModeStatusEEENSt3__112basic_stringIcNS6_11char_traitsIcEENS6_9allocatorIcEEEEj
_ZN7android8hardware6camera6common4V1_08toStringINS3_18CameraDeviceStatusEEENSt3__112basic_stringIcNS6_11char_traitsIcEENS6_9allocatorIcEEEEj
_ZN7android8hardware6camera6common4V1_08toStringINS3_18CameraMetadataTypeEEENSt3__112basic_stringIcNS6_11char_traitsIcEENS6_9allocatorIcEEEEj
_ZN7android8hardware6camera6common4V1_08toStringINS3_6StatusEEENSt3__112basic_stringIcNS6_11char_traitsIcEENS6_9allocatorIcEEEEj
_ZN7android8hardware6camera6common4V1_08toStringINS3_9TorchModeEEENSt3__112basic_stringIcNS6_11char_traitsIcEENS6_9allocatorIcEEEEj
_ZN7android8hardware6camera6common4V1_0eqERKNS3_16VendorTagSectionES6_
_ZN7android8hardware6camera6common4V1_0eqERKNS3_18CameraResourceCostES6_
_ZN7android8hardware6camera6common4V1_0eqERKNS3_9VendorTagES6_
_ZN7android8hardware6camera6common4V1_0neERKNS3_16VendorTagSectionES6_
_ZN7android8hardware6camera6common4V1_0neERKNS3_18CameraResourceCostES6_
_ZN7android8hardware6camera6common4V1_0neERKNS3_9VendorTagES6_
