_ZN7android9EffectMap10INVALID_IDE
_ZN7android9EffectMap12makeUniqueIdEv
_ZN7android9EffectMap3addEPP18effect_interface_s
_ZN7android9EffectMap3getERKm
_ZN7android9EffectMap6removeEPP18effect_interface_s
_ZN7android9HidlUtils11uuidFromHalERK12audio_uuid_sPNS_8hardware5audio6common4V2_04UuidE
_ZN7android9HidlUtils14audioGainToHalERKNS_8hardware5audio6common4V2_09AudioGainEP10audio_gain
_ZN7android9HidlUtils14audioPortToHalERKNS_8hardware5audio6common4V2_09AudioPortEP10audio_port
_ZN7android9HidlUtils16audioConfigToHalERKNS_8hardware5audio6common4V2_011AudioConfigEP12audio_config
_ZN7android9HidlUtils16audioGainFromHalERK10audio_gainPNS_8hardware5audio6common4V2_09AudioGainE
_ZN7android9HidlUtils16audioPortFromHalERK10audio_portPNS_8hardware5audio6common4V2_09AudioPortE
_ZN7android9HidlUtils18audioConfigFromHalERK12audio_configPNS_8hardware5audio6common4V2_011AudioConfigE
_ZN7android9HidlUtils20audioGainConfigToHalERKNS_8hardware5audio6common4V2_015AudioGainConfigEP17audio_gain_config
_ZN7android9HidlUtils20audioPortConfigToHalERKNS_8hardware5audio6common4V2_015AudioPortConfigEP17audio_port_config
_ZN7android9HidlUtils21audioOffloadInfoToHalERKNS_8hardware5audio6common4V2_016AudioOffloadInfoEP20audio_offload_info_t
_ZN7android9HidlUtils21audioPortConfigsToHalERKNS_8hardware8hidl_vecINS1_5audio6common4V2_015AudioPortConfigEEE
_ZN7android9HidlUtils22audioGainConfigFromHalERK17audio_gain_configPNS_8hardware5audio6common4V2_015AudioGainConfigE
_ZN7android9HidlUtils22audioPortConfigFromHalERK17audio_port_configPNS_8hardware5audio6common4V2_015AudioPortConfigE
_ZN7android9HidlUtils23audioOffloadInfoFromHalERK20audio_offload_info_tPNS_8hardware5audio6common4V2_016AudioOffloadInfoE
_ZN7android9HidlUtils23audioPortConfigsFromHalEjPK17audio_port_configPNS_8hardware8hidl_vecINS4_5audio6common4V2_015AudioPortConfigEEE
_ZN7android9HidlUtils9uuidToHalERKNS_8hardware5audio6common4V2_04UuidEP12audio_uuid_s
_ZN7android9SingletonINS_9EffectMapEE5sLockE
_ZN7android9SingletonINS_9EffectMapEE9sInstanceE
