_ZN7android8hardware5audio6common4V2_021writeEmbeddedToParcelERKNS3_9AudioPortEPNS0_6ParcelEjj
_ZN7android8hardware5audio6common4V2_022readEmbeddedFromParcelERKNS3_9AudioPortERKNS0_6ParcelEjj
_ZN7android8hardware5audio6common4V2_08toStringENS3_10AudioUsageE
_ZN7android8hardware5audio6common4V2_08toStringENS3_11AudioDeviceE
_ZN7android8hardware5audio6common4V2_08toStringENS3_11AudioFormatE
_ZN7android8hardware5audio6common4V2_08toStringENS3_11AudioSourceE
_ZN7android8hardware5audio6common4V2_08toStringENS3_13AudioGainModeE
_ZN7android8hardware5audio6common4V2_08toStringENS3_13AudioPortRoleE
_ZN7android8hardware5audio6common4V2_08toStringENS3_13AudioPortTypeE
_ZN7android8hardware5audio6common4V2_08toStringENS3_14AudioInputFlagE
_ZN7android8hardware5audio6common4V2_08toStringENS3_15AudioInterleaveE
_ZN7android8hardware5audio6common4V2_08toStringENS3_15AudioOutputFlagE
_ZN7android8hardware5audio6common4V2_08toStringENS3_15AudioStreamTypeE
_ZN7android8hardware5audio6common4V2_08toStringENS3_16AudioChannelMaskE
_ZN7android8hardware5audio6common4V2_08toStringENS3_17AudioHandleConstsE
_ZN7android8hardware5audio6common4V2_08toStringENS3_17FixedChannelCountE
_ZN7android8hardware5audio6common4V2_08toStringENS3_18AudioSessionConstsE
_ZN7android8hardware5audio6common4V2_08toStringENS3_19AudioPortConfigMaskE
_ZN7android8hardware5audio6common4V2_08toStringENS3_20AudioMixLatencyClassE
_ZN7android8hardware5audio6common4V2_08toStringENS3_9AudioModeE
_ZN7android8hardware5audio6common4V2_08toStringERKNS3_10ThreadInfoE
_ZN7android8hardware5audio6common4V2_08toStringERKNS3_11AudioConfigE
_ZN7android8hardware5audio6common4V2_08toStringERKNS3_15AudioGainConfigE
_ZN7android8hardware5audio6common4V2_08toStringERKNS3_15AudioPortConfig3Ext21AudioPortConfigMixExt7UseCaseE
_ZN7android8hardware5audio6common4V2_08toStringERKNS3_15AudioPortConfig3Ext21AudioPortConfigMixExtE
_ZN7android8hardware5audio6common4V2_08toStringERKNS3_15AudioPortConfig3ExtE
_ZN7android8hardware5audio6common4V2_08toStringERKNS3_15AudioPortConfigE
_ZN7android8hardware5audio6common4V2_08toStringERKNS3_15AudioPortMixExtE
_ZN7android8hardware5audio6common4V2_08toStringERKNS3_16AudioOffloadInfoE
_ZN7android8hardware5audio6common4V2_08toStringERKNS3_18AudioPortDeviceExtE
_ZN7android8hardware5audio6common4V2_08toStringERKNS3_19AudioPortSessionExtE
_ZN7android8hardware5audio6common4V2_08toStringERKNS3_24AudioPortConfigDeviceExtE
_ZN7android8hardware5audio6common4V2_08toStringERKNS3_25AudioPortConfigSessionExtE
_ZN7android8hardware5audio6common4V2_08toStringERKNS3_4UuidE
_ZN7android8hardware5audio6common4V2_08toStringERKNS3_9AudioGainE
_ZN7android8hardware5audio6common4V2_08toStringERKNS3_9AudioPort3ExtE
_ZN7android8hardware5audio6common4V2_08toStringERKNS3_9AudioPortE
_ZN7android8hardware5audio6common4V2_08toStringINS3_10AudioUsageEEENSt3__112basic_stringIcNS6_11char_traitsIcEENS6_9allocatorIcEEEEi
_ZN7android8hardware5audio6common4V2_08toStringINS3_11AudioDeviceEEENSt3__112basic_stringIcNS6_11char_traitsIcEENS6_9allocatorIcEEEEj
_ZN7android8hardware5audio6common4V2_08toStringINS3_11AudioFormatEEENSt3__112basic_stringIcNS6_11char_traitsIcEENS6_9allocatorIcEEEEj
_ZN7android8hardware5audio6common4V2_08toStringINS3_11AudioSourceEEENSt3__112basic_stringIcNS6_11char_traitsIcEENS6_9allocatorIcEEEEi
_ZN7android8hardware5audio6common4V2_08toStringINS3_13AudioGainModeEEENSt3__112basic_stringIcNS6_11char_traitsIcEENS6_9allocatorIcEEEEj
_ZN7android8hardware5audio6common4V2_08toStringINS3_13AudioPortRoleEEENSt3__112basic_stringIcNS6_11char_traitsIcEENS6_9allocatorIcEEEEi
_ZN7android8hardware5audio6common4V2_08toStringINS3_13AudioPortTypeEEENSt3__112basic_stringIcNS6_11char_traitsIcEENS6_9allocatorIcEEEEi
_ZN7android8hardware5audio6common4V2_08toStringINS3_14AudioInputFlagEEENSt3__112basic_stringIcNS6_11char_traitsIcEENS6_9allocatorIcEEEEi
_ZN7android8hardware5audio6common4V2_08toStringINS3_15AudioInterleaveEEENSt3__112basic_stringIcNS6_11char_traitsIcEENS6_9allocatorIcEEEEi
_ZN7android8hardware5audio6common4V2_08toStringINS3_15AudioOutputFlagEEENSt3__112basic_stringIcNS6_11char_traitsIcEENS6_9allocatorIcEEEEi
_ZN7android8hardware5audio6common4V2_08toStringINS3_15AudioStreamTypeEEENSt3__112basic_stringIcNS6_11char_traitsIcEENS6_9allocatorIcEEEEi
_ZN7android8hardware5audio6common4V2_08toStringINS3_16AudioChannelMaskEEENSt3__112basic_stringIcNS6_11char_traitsIcEENS6_9allocatorIcEEEEj
_ZN7android8hardware5audio6common4V2_08toStringINS3_17AudioHandleConstsEEENSt3__112basic_stringIcNS6_11char_traitsIcEENS6_9allocatorIcEEEEi
_ZN7android8hardware5audio6common4V2_08toStringINS3_17FixedChannelCountEEENSt3__112basic_stringIcNS6_11char_traitsIcEENS6_9allocatorIcEEEEi
_ZN7android8hardware5audio6common4V2_08toStringINS3_18AudioSessionConstsEEENSt3__112basic_stringIcNS6_11char_traitsIcEENS6_9allocatorIcEEEEi
_ZN7android8hardware5audio6common4V2_08toStringINS3_19AudioPortConfigMaskEEENSt3__112basic_stringIcNS6_11char_traitsIcEENS6_9allocatorIcEEEEj
_ZN7android8hardware5audio6common4V2_08toStringINS3_20AudioMixLatencyClassEEENSt3__112basic_stringIcNS6_11char_traitsIcEENS6_9allocatorIcEEEEi
_ZN7android8hardware5audio6common4V2_08toStringINS3_9AudioModeEEENSt3__112basic_stringIcNS6_11char_traitsIcEENS6_9allocatorIcEEEEi
_ZN7android8hardware5audio6common4V2_0eqERKNS3_10ThreadInfoES6_
_ZN7android8hardware5audio6common4V2_0eqERKNS3_11AudioConfigES6_
_ZN7android8hardware5audio6common4V2_0eqERKNS3_15AudioGainConfigES6_
_ZN7android8hardware5audio6common4V2_0eqERKNS3_15AudioPortMixExtES6_
_ZN7android8hardware5audio6common4V2_0eqERKNS3_16AudioOffloadInfoES6_
_ZN7android8hardware5audio6common4V2_0eqERKNS3_18AudioPortDeviceExtES6_
_ZN7android8hardware5audio6common4V2_0eqERKNS3_19AudioPortSessionExtES6_
_ZN7android8hardware5audio6common4V2_0eqERKNS3_24AudioPortConfigDeviceExtES6_
_ZN7android8hardware5audio6common4V2_0eqERKNS3_25AudioPortConfigSessionExtES6_
_ZN7android8hardware5audio6common4V2_0eqERKNS3_4UuidES6_
_ZN7android8hardware5audio6common4V2_0eqERKNS3_9AudioGainES6_
_ZN7android8hardware5audio6common4V2_0neERKNS3_10ThreadInfoES6_
_ZN7android8hardware5audio6common4V2_0neERKNS3_11AudioConfigES6_
_ZN7android8hardware5audio6common4V2_0neERKNS3_15AudioGainConfigES6_
_ZN7android8hardware5audio6common4V2_0neERKNS3_15AudioPortMixExtES6_
_ZN7android8hardware5audio6common4V2_0neERKNS3_16AudioOffloadInfoES6_
_ZN7android8hardware5audio6common4V2_0neERKNS3_18AudioPortDeviceExtES6_
_ZN7android8hardware5audio6common4V2_0neERKNS3_19AudioPortSessionExtES6_
_ZN7android8hardware5audio6common4V2_0neERKNS3_24AudioPortConfigDeviceExtES6_
_ZN7android8hardware5audio6common4V2_0neERKNS3_25AudioPortConfigSessionExtES6_
_ZN7android8hardware5audio6common4V2_0neERKNS3_4UuidES6_
_ZN7android8hardware5audio6common4V2_0neERKNS3_9AudioGainES6_
