_ZN7android8hardware6camera8metadata4V3_28toStringENS3_17CameraMetadataTagE
_ZN7android8hardware6camera8metadata4V3_28toStringENS3_21CameraMetadataSectionE
_ZN7android8hardware6camera8metadata4V3_28toStringENS3_26CameraMetadataSectionStartE
_ZN7android8hardware6camera8metadata4V3_28toStringENS3_33CameraMetadataEnumAndroidEdgeModeE
_ZN7android8hardware6camera8metadata4V3_28toStringENS3_34CameraMetadataEnumAndroidFlashModeE
_ZN7android8hardware6camera8metadata4V3_28toStringENS3_34CameraMetadataEnumAndroidLensStateE
_ZN7android8hardware6camera8metadata4V3_28toStringENS3_35CameraMetadataEnumAndroidFlashStateE
_ZN7android8hardware6camera8metadata4V3_28toStringENS3_35CameraMetadataEnumAndroidLensFacingE
_ZN7android8hardware6camera8metadata4V3_28toStringENS3_36CameraMetadataEnumAndroidControlModeE
_ZN7android8hardware6camera8metadata4V3_28toStringENS3_36CameraMetadataEnumAndroidLedTransmitE
_ZN7android8hardware6camera8metadata4V3_28toStringENS3_36CameraMetadataEnumAndroidRequestTypeE
_ZN7android8hardware6camera8metadata4V3_28toStringENS3_36CameraMetadataEnumAndroidShadingModeE
_ZN7android8hardware6camera8metadata4V3_28toStringENS3_36CameraMetadataEnumAndroidTonemapModeE
_ZN7android8hardware6camera8metadata4V3_28toStringENS3_37CameraMetadataEnumAndroidDemosaicModeE
_ZN7android8hardware6camera8metadata4V3_28toStringENS3_37CameraMetadataEnumAndroidHotPixelModeE
_ZN7android8hardware6camera8metadata4V3_28toStringENS3_38CameraMetadataEnumAndroidControlAeLockE
_ZN7android8hardware6camera8metadata4V3_28toStringENS3_38CameraMetadataEnumAndroidControlAeModeE
_ZN7android8hardware6camera8metadata4V3_28toStringENS3_38CameraMetadataEnumAndroidControlAfModeE
_ZN7android8hardware6camera8metadata4V3_28toStringENS3_39CameraMetadataEnumAndroidBlackLevelLockE
_ZN7android8hardware6camera8metadata4V3_28toStringENS3_39CameraMetadataEnumAndroidControlAeStateE
_ZN7android8hardware6camera8metadata4V3_28toStringENS3_39CameraMetadataEnumAndroidControlAfStateE
_ZN7android8hardware6camera8metadata4V3_28toStringENS3_39CameraMetadataEnumAndroidControlAwbLockE
_ZN7android8hardware6camera8metadata4V3_28toStringENS3_39CameraMetadataEnumAndroidControlAwbModeE
_ZN7android8hardware6camera8metadata4V3_28toStringENS3_39CameraMetadataEnumAndroidSyncMaxLatencyE
_ZN7android8hardware6camera8metadata4V3_28toStringENS3_40CameraMetadataEnumAndroidControlAwbStateE
_ZN7android8hardware6camera8metadata4V3_28toStringENS3_40CameraMetadataEnumAndroidSyncFrameNumberE
_ZN7android8hardware6camera8metadata4V3_28toStringENS3_41CameraMetadataEnumAndroidControlAfTriggerE
_ZN7android8hardware6camera8metadata4V3_28toStringENS3_41CameraMetadataEnumAndroidControlEnableZslE
_ZN7android8hardware6camera8metadata4V3_28toStringENS3_41CameraMetadataEnumAndroidControlSceneModeE
_ZN7android8hardware6camera8metadata4V3_28toStringENS3_41CameraMetadataEnumAndroidLedAvailableLedsE
_ZN7android8hardware6camera8metadata4V3_28toStringENS3_42CameraMetadataEnumAndroidControlEffectModeE
_ZN7android8hardware6camera8metadata4V3_28toStringENS3_43CameraMetadataEnumAndroidFlashInfoAvailableE
_ZN7android8hardware6camera8metadata4V3_28toStringENS3_43CameraMetadataEnumAndroidNoiseReductionModeE
_ZN7android8hardware6camera8metadata4V3_28toStringENS3_43CameraMetadataEnumAndroidScalerCroppingTypeE
_ZN7android8hardware6camera8metadata4V3_28toStringENS3_43CameraMetadataEnumAndroidTonemapPresetCurveE
_ZN7android8hardware6camera8metadata4V3_28toStringENS3_44CameraMetadataEnumAndroidColorCorrectionModeE
_ZN7android8hardware6camera8metadata4V3_28toStringENS3_44CameraMetadataEnumAndroidQuirksPartialResultE
_ZN7android8hardware6camera8metadata4V3_28toStringENS3_44CameraMetadataEnumAndroidRequestMetadataModeE
_ZN7android8hardware6camera8metadata4V3_28toStringENS3_45CameraMetadataEnumAndroidControlCaptureIntentE
_ZN7android8hardware6camera8metadata4V3_28toStringENS3_46CameraMetadataEnumAndroidDepthDepthIsExclusiveE
_ZN7android8hardware6camera8metadata4V3_28toStringENS3_46CameraMetadataEnumAndroidSensorTestPatternModeE
_ZN7android8hardware6camera8metadata4V3_28toStringENS3_47CameraMetadataEnumAndroidControlAeLockAvailableE
_ZN7android8hardware6camera8metadata4V3_28toStringENS3_47CameraMetadataEnumAndroidScalerAvailableFormatsE
_ZN7android8hardware6camera8metadata4V3_28toStringENS3_47CameraMetadataEnumAndroidStatisticsSceneFlickerE
_ZN7android8hardware6camera8metadata4V3_28toStringENS3_48CameraMetadataEnumAndroidControlAwbLockAvailableE
_ZN7android8hardware6camera8metadata4V3_28toStringENS3_48CameraMetadataEnumAndroidStatisticsHistogramModeE
_ZN7android8hardware6camera8metadata4V3_28toStringENS3_49CameraMetadataEnumAndroidControlAeAntibandingModeE
_ZN7android8hardware6camera8metadata4V3_28toStringENS3_49CameraMetadataEnumAndroidStatisticsFaceDetectModeE
_ZN7android8hardware6camera8metadata4V3_28toStringENS3_50CameraMetadataEnumAndroidSensorInfoTimestampSourceE
_ZN7android8hardware6camera8metadata4V3_28toStringENS3_50CameraMetadataEnumAndroidStatisticsHotPixelMapModeE
_ZN7android8hardware6camera8metadata4V3_28toStringENS3_51CameraMetadataEnumAndroidControlAePrecaptureTriggerE
_ZN7android8hardware6camera8metadata4V3_28toStringENS3_51CameraMetadataEnumAndroidInfoSupportedHardwareLevelE
_ZN7android8hardware6camera8metadata4V3_28toStringENS3_51CameraMetadataEnumAndroidSensorReferenceIlluminant1E
_ZN7android8hardware6camera8metadata4V3_28toStringENS3_51CameraMetadataEnumAndroidStatisticsSharpnessMapModeE
_ZN7android8hardware6camera8metadata4V3_28toStringENS3_53CameraMetadataEnumAndroidLensOpticalStabilizationModeE
_ZN7android8hardware6camera8metadata4V3_28toStringENS3_53CameraMetadataEnumAndroidRequestAvailableCapabilitiesE
_ZN7android8hardware6camera8metadata4V3_28toStringENS3_53CameraMetadataEnumAndroidSensorInfoLensShadingAppliedE
_ZN7android8hardware6camera8metadata4V3_28toStringENS3_53CameraMetadataEnumAndroidStatisticsLensShadingMapModeE
_ZN7android8hardware6camera8metadata4V3_28toStringENS3_54CameraMetadataEnumAndroidColorCorrectionAberrationModeE
_ZN7android8hardware6camera8metadata4V3_28toStringENS3_54CameraMetadataEnumAndroidControlVideoStabilizationModeE
_ZN7android8hardware6camera8metadata4V3_28toStringENS3_57CameraMetadataEnumAndroidLensInfoFocusDistanceCalibrationE
_ZN7android8hardware6camera8metadata4V3_28toStringENS3_57CameraMetadataEnumAndroidSensorInfoColorFilterArrangementE
_ZN7android8hardware6camera8metadata4V3_28toStringENS3_60CameraMetadataEnumAndroidScalerAvailableStreamConfigurationsE
_ZN7android8hardware6camera8metadata4V3_28toStringENS3_64CameraMetadataEnumAndroidDepthAvailableDepthStreamConfigurationsE
_ZN7android8hardware6camera8metadata4V3_28toStringINS3_17CameraMetadataTagEEENSt3__112basic_stringIcNS6_11char_traitsIcEENS6_9allocatorIcEEEEj
_ZN7android8hardware6camera8metadata4V3_28toStringINS3_21CameraMetadataSectionEEENSt3__112basic_stringIcNS6_11char_traitsIcEENS6_9allocatorIcEEEEj
_ZN7android8hardware6camera8metadata4V3_28toStringINS3_26CameraMetadataSectionStartEEENSt3__112basic_stringIcNS6_11char_traitsIcEENS6_9allocatorIcEEEEj
_ZN7android8hardware6camera8metadata4V3_28toStringINS3_33CameraMetadataEnumAndroidEdgeModeEEENSt3__112basic_stringIcNS6_11char_traitsIcEENS6_9allocatorIcEEEEj
_ZN7android8hardware6camera8metadata4V3_28toStringINS3_34CameraMetadataEnumAndroidFlashModeEEENSt3__112basic_stringIcNS6_11char_traitsIcEENS6_9allocatorIcEEEEj
_ZN7android8hardware6camera8metadata4V3_28toStringINS3_34CameraMetadataEnumAndroidLensStateEEENSt3__112basic_stringIcNS6_11char_traitsIcEENS6_9allocatorIcEEEEj
_ZN7android8hardware6camera8metadata4V3_28toStringINS3_35CameraMetadataEnumAndroidFlashStateEEENSt3__112basic_stringIcNS6_11char_traitsIcEENS6_9allocatorIcEEEEj
_ZN7android8hardware6camera8metadata4V3_28toStringINS3_35CameraMetadataEnumAndroidLensFacingEEENSt3__112basic_stringIcNS6_11char_traitsIcEENS6_9allocatorIcEEEEj
_ZN7android8hardware6camera8metadata4V3_28toStringINS3_36CameraMetadataEnumAndroidControlModeEEENSt3__112basic_stringIcNS6_11char_traitsIcEENS6_9allocatorIcEEEEj
_ZN7android8hardware6camera8metadata4V3_28toStringINS3_36CameraMetadataEnumAndroidLedTransmitEEENSt3__112basic_stringIcNS6_11char_traitsIcEENS6_9allocatorIcEEEEj
_ZN7android8hardware6camera8metadata4V3_28toStringINS3_36CameraMetadataEnumAndroidRequestTypeEEENSt3__112basic_stringIcNS6_11char_traitsIcEENS6_9allocatorIcEEEEj
_ZN7android8hardware6camera8metadata4V3_28toStringINS3_36CameraMetadataEnumAndroidShadingModeEEENSt3__112basic_stringIcNS6_11char_traitsIcEENS6_9allocatorIcEEEEj
_ZN7android8hardware6camera8metadata4V3_28toStringINS3_36CameraMetadataEnumAndroidTonemapModeEEENSt3__112basic_stringIcNS6_11char_traitsIcEENS6_9allocatorIcEEEEj
_ZN7android8hardware6camera8metadata4V3_28toStringINS3_37CameraMetadataEnumAndroidDemosaicModeEEENSt3__112basic_stringIcNS6_11char_traitsIcEENS6_9allocatorIcEEEEj
_ZN7android8hardware6camera8metadata4V3_28toStringINS3_37CameraMetadataEnumAndroidHotPixelModeEEENSt3__112basic_stringIcNS6_11char_traitsIcEENS6_9allocatorIcEEEEj
_ZN7android8hardware6camera8metadata4V3_28toStringINS3_38CameraMetadataEnumAndroidControlAeLockEEENSt3__112basic_stringIcNS6_11char_traitsIcEENS6_9allocatorIcEEEEj
_ZN7android8hardware6camera8metadata4V3_28toStringINS3_38CameraMetadataEnumAndroidControlAeModeEEENSt3__112basic_stringIcNS6_11char_traitsIcEENS6_9allocatorIcEEEEj
_ZN7android8hardware6camera8metadata4V3_28toStringINS3_38CameraMetadataEnumAndroidControlAfModeEEENSt3__112basic_stringIcNS6_11char_traitsIcEENS6_9allocatorIcEEEEj
_ZN7android8hardware6camera8metadata4V3_28toStringINS3_39CameraMetadataEnumAndroidBlackLevelLockEEENSt3__112basic_stringIcNS6_11char_traitsIcEENS6_9allocatorIcEEEEj
_ZN7android8hardware6camera8metadata4V3_28toStringINS3_39CameraMetadataEnumAndroidControlAeStateEEENSt3__112basic_stringIcNS6_11char_traitsIcEENS6_9allocatorIcEEEEj
_ZN7android8hardware6camera8metadata4V3_28toStringINS3_39CameraMetadataEnumAndroidControlAfStateEEENSt3__112basic_stringIcNS6_11char_traitsIcEENS6_9allocatorIcEEEEj
_ZN7android8hardware6camera8metadata4V3_28toStringINS3_39CameraMetadataEnumAndroidControlAwbLockEEENSt3__112basic_stringIcNS6_11char_traitsIcEENS6_9allocatorIcEEEEj
_ZN7android8hardware6camera8metadata4V3_28toStringINS3_39CameraMetadataEnumAndroidControlAwbModeEEENSt3__112basic_stringIcNS6_11char_traitsIcEENS6_9allocatorIcEEEEj
_ZN7android8hardware6camera8metadata4V3_28toStringINS3_39CameraMetadataEnumAndroidSyncMaxLatencyEEENSt3__112basic_stringIcNS6_11char_traitsIcEENS6_9allocatorIcEEEEj
_ZN7android8hardware6camera8metadata4V3_28toStringINS3_40CameraMetadataEnumAndroidControlAwbStateEEENSt3__112basic_stringIcNS6_11char_traitsIcEENS6_9allocatorIcEEEEj
_ZN7android8hardware6camera8metadata4V3_28toStringINS3_40CameraMetadataEnumAndroidSyncFrameNumberEEENSt3__112basic_stringIcNS6_11char_traitsIcEENS6_9allocatorIcEEEEj
_ZN7android8hardware6camera8metadata4V3_28toStringINS3_41CameraMetadataEnumAndroidControlAfTriggerEEENSt3__112basic_stringIcNS6_11char_traitsIcEENS6_9allocatorIcEEEEj
_ZN7android8hardware6camera8metadata4V3_28toStringINS3_41CameraMetadataEnumAndroidControlEnableZslEEENSt3__112basic_stringIcNS6_11char_traitsIcEENS6_9allocatorIcEEEEj
_ZN7android8hardware6camera8metadata4V3_28toStringINS3_41CameraMetadataEnumAndroidControlSceneModeEEENSt3__112basic_stringIcNS6_11char_traitsIcEENS6_9allocatorIcEEEEj
_ZN7android8hardware6camera8metadata4V3_28toStringINS3_41CameraMetadataEnumAndroidLedAvailableLedsEEENSt3__112basic_stringIcNS6_11char_traitsIcEENS6_9allocatorIcEEEEj
_ZN7android8hardware6camera8metadata4V3_28toStringINS3_42CameraMetadataEnumAndroidControlEffectModeEEENSt3__112basic_stringIcNS6_11char_traitsIcEENS6_9allocatorIcEEEEj
_ZN7android8hardware6camera8metadata4V3_28toStringINS3_43CameraMetadataEnumAndroidFlashInfoAvailableEEENSt3__112basic_stringIcNS6_11char_traitsIcEENS6_9allocatorIcEEEEj
_ZN7android8hardware6camera8metadata4V3_28toStringINS3_43CameraMetadataEnumAndroidNoiseReductionModeEEENSt3__112basic_stringIcNS6_11char_traitsIcEENS6_9allocatorIcEEEEj
_ZN7android8hardware6camera8metadata4V3_28toStringINS3_43CameraMetadataEnumAndroidScalerCroppingTypeEEENSt3__112basic_stringIcNS6_11char_traitsIcEENS6_9allocatorIcEEEEj
_ZN7android8hardware6camera8metadata4V3_28toStringINS3_43CameraMetadataEnumAndroidTonemapPresetCurveEEENSt3__112basic_stringIcNS6_11char_traitsIcEENS6_9allocatorIcEEEEj
_ZN7android8hardware6camera8metadata4V3_28toStringINS3_44CameraMetadataEnumAndroidColorCorrectionModeEEENSt3__112basic_stringIcNS6_11char_traitsIcEENS6_9allocatorIcEEEEj
_ZN7android8hardware6camera8metadata4V3_28toStringINS3_44CameraMetadataEnumAndroidQuirksPartialResultEEENSt3__112basic_stringIcNS6_11char_traitsIcEENS6_9allocatorIcEEEEj
_ZN7android8hardware6camera8metadata4V3_28toStringINS3_44CameraMetadataEnumAndroidRequestMetadataModeEEENSt3__112basic_stringIcNS6_11char_traitsIcEENS6_9allocatorIcEEEEj
_ZN7android8hardware6camera8metadata4V3_28toStringINS3_45CameraMetadataEnumAndroidControlCaptureIntentEEENSt3__112basic_stringIcNS6_11char_traitsIcEENS6_9allocatorIcEEEEj
_ZN7android8hardware6camera8metadata4V3_28toStringINS3_46CameraMetadataEnumAndroidDepthDepthIsExclusiveEEENSt3__112basic_stringIcNS6_11char_traitsIcEENS6_9allocatorIcEEEEj
_ZN7android8hardware6camera8metadata4V3_28toStringINS3_46CameraMetadataEnumAndroidSensorTestPatternModeEEENSt3__112basic_stringIcNS6_11char_traitsIcEENS6_9allocatorIcEEEEj
_ZN7android8hardware6camera8metadata4V3_28toStringINS3_47CameraMetadataEnumAndroidControlAeLockAvailableEEENSt3__112basic_stringIcNS6_11char_traitsIcEENS6_9allocatorIcEEEEj
_ZN7android8hardware6camera8metadata4V3_28toStringINS3_47CameraMetadataEnumAndroidScalerAvailableFormatsEEENSt3__112basic_stringIcNS6_11char_traitsIcEENS6_9allocatorIcEEEEj
_ZN7android8hardware6camera8metadata4V3_28toStringINS3_47CameraMetadataEnumAndroidStatisticsSceneFlickerEEENSt3__112basic_stringIcNS6_11char_traitsIcEENS6_9allocatorIcEEEEj
_ZN7android8hardware6camera8metadata4V3_28toStringINS3_48CameraMetadataEnumAndroidControlAwbLockAvailableEEENSt3__112basic_stringIcNS6_11char_traitsIcEENS6_9allocatorIcEEEEj
_ZN7android8hardware6camera8metadata4V3_28toStringINS3_48CameraMetadataEnumAndroidStatisticsHistogramModeEEENSt3__112basic_stringIcNS6_11char_traitsIcEENS6_9allocatorIcEEEEj
_ZN7android8hardware6camera8metadata4V3_28toStringINS3_49CameraMetadataEnumAndroidControlAeAntibandingModeEEENSt3__112basic_stringIcNS6_11char_traitsIcEENS6_9allocatorIcEEEEj
_ZN7android8hardware6camera8metadata4V3_28toStringINS3_49CameraMetadataEnumAndroidStatisticsFaceDetectModeEEENSt3__112basic_stringIcNS6_11char_traitsIcEENS6_9allocatorIcEEEEj
_ZN7android8hardware6camera8metadata4V3_28toStringINS3_50CameraMetadataEnumAndroidSensorInfoTimestampSourceEEENSt3__112basic_stringIcNS6_11char_traitsIcEENS6_9allocatorIcEEEEj
_ZN7android8hardware6camera8metadata4V3_28toStringINS3_50CameraMetadataEnumAndroidStatisticsHotPixelMapModeEEENSt3__112basic_stringIcNS6_11char_traitsIcEENS6_9allocatorIcEEEEj
_ZN7android8hardware6camera8metadata4V3_28toStringINS3_51CameraMetadataEnumAndroidControlAePrecaptureTriggerEEENSt3__112basic_stringIcNS6_11char_traitsIcEENS6_9allocatorIcEEEEj
_ZN7android8hardware6camera8metadata4V3_28toStringINS3_51CameraMetadataEnumAndroidInfoSupportedHardwareLevelEEENSt3__112basic_stringIcNS6_11char_traitsIcEENS6_9allocatorIcEEEEj
_ZN7android8hardware6camera8metadata4V3_28toStringINS3_51CameraMetadataEnumAndroidSensorReferenceIlluminant1EEENSt3__112basic_stringIcNS6_11char_traitsIcEENS6_9allocatorIcEEEEj
_ZN7android8hardware6camera8metadata4V3_28toStringINS3_51CameraMetadataEnumAndroidStatisticsSharpnessMapModeEEENSt3__112basic_stringIcNS6_11char_traitsIcEENS6_9allocatorIcEEEEj
_ZN7android8hardware6camera8metadata4V3_28toStringINS3_53CameraMetadataEnumAndroidLensOpticalStabilizationModeEEENSt3__112basic_stringIcNS6_11char_traitsIcEENS6_9allocatorIcEEEEj
_ZN7android8hardware6camera8metadata4V3_28toStringINS3_53CameraMetadataEnumAndroidRequestAvailableCapabilitiesEEENSt3__112basic_stringIcNS6_11char_traitsIcEENS6_9allocatorIcEEEEj
_ZN7android8hardware6camera8metadata4V3_28toStringINS3_53CameraMetadataEnumAndroidSensorInfoLensShadingAppliedEEENSt3__112basic_stringIcNS6_11char_traitsIcEENS6_9allocatorIcEEEEj
_ZN7android8hardware6camera8metadata4V3_28toStringINS3_53CameraMetadataEnumAndroidStatisticsLensShadingMapModeEEENSt3__112basic_stringIcNS6_11char_traitsIcEENS6_9allocatorIcEEEEj
_ZN7android8hardware6camera8metadata4V3_28toStringINS3_54CameraMetadataEnumAndroidColorCorrectionAberrationModeEEENSt3__112basic_stringIcNS6_11char_traitsIcEENS6_9allocatorIcEEEEj
_ZN7android8hardware6camera8metadata4V3_28toStringINS3_54CameraMetadataEnumAndroidControlVideoStabilizationModeEEENSt3__112basic_stringIcNS6_11char_traitsIcEENS6_9allocatorIcEEEEj
_ZN7android8hardware6camera8metadata4V3_28toStringINS3_57CameraMetadataEnumAndroidLensInfoFocusDistanceCalibrationEEENSt3__112basic_stringIcNS6_11char_traitsIcEENS6_9allocatorIcEEEEj
_ZN7android8hardware6camera8metadata4V3_28toStringINS3_57CameraMetadataEnumAndroidSensorInfoColorFilterArrangementEEENSt3__112basic_stringIcNS6_11char_traitsIcEENS6_9allocatorIcEEEEj
_ZN7android8hardware6camera8metadata4V3_28toStringINS3_60CameraMetadataEnumAndroidScalerAvailableStreamConfigurationsEEENSt3__112basic_stringIcNS6_11char_traitsIcEENS6_9allocatorIcEEEEj
_ZN7android8hardware6camera8metadata4V3_28toStringINS3_64CameraMetadataEnumAndroidDepthAvailableDepthStreamConfigurationsEEENSt3__112basic_stringIcNS6_11char_traitsIcEENS6_9allocatorIcEEEEj
