_ZN7android8hardware6camera8metadata4V3_38toStringENS3_17CameraMetadataTagE
_ZN7android8hardware6camera8metadata4V3_38toStringENS3_21CameraMetadataSectionE
_ZN7android8hardware6camera8metadata4V3_38toStringENS3_26CameraMetadataSectionStartE
_ZN7android8hardware6camera8metadata4V3_38toStringENS3_38CameraMetadataEnumAndroidControlAeModeE
_ZN7android8hardware6camera8metadata4V3_38toStringENS3_42CameraMetadataEnumAndroidLensPoseReferenceE
_ZN7android8hardware6camera8metadata4V3_38toStringENS3_45CameraMetadataEnumAndroidControlAfSceneChangeE
_ZN7android8hardware6camera8metadata4V3_38toStringENS3_45CameraMetadataEnumAndroidControlCaptureIntentE
_ZN7android8hardware6camera8metadata4V3_38toStringENS3_46CameraMetadataEnumAndroidStatisticsOisDataModeE
_ZN7android8hardware6camera8metadata4V3_38toStringENS3_51CameraMetadataEnumAndroidInfoSupportedHardwareLevelE
_ZN7android8hardware6camera8metadata4V3_38toStringENS3_53CameraMetadataEnumAndroidRequestAvailableCapabilitiesE
_ZN7android8hardware6camera8metadata4V3_38toStringENS3_57CameraMetadataEnumAndroidLogicalMultiCameraSensorSyncTypeE
_ZN7android8hardware6camera8metadata4V3_38toStringINS3_17CameraMetadataTagEEENSt3__112basic_stringIcNS6_11char_traitsIcEENS6_9allocatorIcEEEEj
_ZN7android8hardware6camera8metadata4V3_38toStringINS3_21CameraMetadataSectionEEENSt3__112basic_stringIcNS6_11char_traitsIcEENS6_9allocatorIcEEEEj
_ZN7android8hardware6camera8metadata4V3_38toStringINS3_26CameraMetadataSectionStartEEENSt3__112basic_stringIcNS6_11char_traitsIcEENS6_9allocatorIcEEEEj
_ZN7android8hardware6camera8metadata4V3_38toStringINS3_38CameraMetadataEnumAndroidControlAeModeEEENSt3__112basic_stringIcNS6_11char_traitsIcEENS6_9allocatorIcEEEEj
_ZN7android8hardware6camera8metadata4V3_38toStringINS3_42CameraMetadataEnumAndroidLensPoseReferenceEEENSt3__112basic_stringIcNS6_11char_traitsIcEENS6_9allocatorIcEEEEj
_ZN7android8hardware6camera8metadata4V3_38toStringINS3_45CameraMetadataEnumAndroidControlAfSceneChangeEEENSt3__112basic_stringIcNS6_11char_traitsIcEENS6_9allocatorIcEEEEj
_ZN7android8hardware6camera8metadata4V3_38toStringINS3_45CameraMetadataEnumAndroidControlCaptureIntentEEENSt3__112basic_stringIcNS6_11char_traitsIcEENS6_9allocatorIcEEEEj
_ZN7android8hardware6camera8metadata4V3_38toStringINS3_46CameraMetadataEnumAndroidStatisticsOisDataModeEEENSt3__112basic_stringIcNS6_11char_traitsIcEENS6_9allocatorIcEEEEj
_ZN7android8hardware6camera8metadata4V3_38toStringINS3_51CameraMetadataEnumAndroidInfoSupportedHardwareLevelEEENSt3__112basic_stringIcNS6_11char_traitsIcEENS6_9allocatorIcEEEEj
_ZN7android8hardware6camera8metadata4V3_38toStringINS3_53CameraMetadataEnumAndroidRequestAvailableCapabilitiesEEENSt3__112basic_stringIcNS6_11char_traitsIcEENS6_9allocatorIcEEEEj
_ZN7android8hardware6camera8metadata4V3_38toStringINS3_57CameraMetadataEnumAndroidLogicalMultiCameraSensorSyncTypeEEENSt3__112basic_stringIcNS6_11char_traitsIcEENS6_9allocatorIcEEEEj
