vtable for android::C2AllocationIon
_ZTVN7android15C2AllocationIonE: 7 entries
8    (int (*)(...)) _ZN7android15C2AllocationIon3mapEjj13C2MemoryUsageP7C2FencePPv
12    (int (*)(...)) _ZN7android15C2AllocationIon5unmapEPvjP7C2Fence
16    (int (*)(...)) _ZNK7android15C2AllocationIon14getAllocatorIdEv
20    (int (*)(...)) _ZNK7android15C2AllocationIon6handleEv
24    (int (*)(...)) _ZNK7android15C2AllocationIon6equalsERKNSt3__110shared_ptrI18C2LinearAllocationEE
28    (int (*)(...)) _ZN7android15C2AllocationIonD2Ev
32    (int (*)(...)) _ZN7android15C2AllocationIonD0Ev


vtable for android::C2AllocatorIon
_ZTVN7android14C2AllocatorIonE: 7 entries
8    (int (*)(...)) _ZNK7android14C2AllocatorIon7getNameEv
12    (int (*)(...)) _ZNK7android14C2AllocatorIon5getIdEv
16    (int (*)(...)) _ZNK7android14C2AllocatorIon9getTraitsEv
20    (int (*)(...)) _ZN7android14C2AllocatorIon19newLinearAllocationEj13C2MemoryUsagePNSt3__110shared_ptrI18C2LinearAllocationEE
24    (int (*)(...)) _ZN7android14C2AllocatorIon21priorLinearAllocationEPK13native_handlePNSt3__110shared_ptrI18C2LinearAllocationEE
36    (int (*)(...)) _ZN7android14C2AllocatorIonD2Ev
40    (int (*)(...)) _ZN7android14C2AllocatorIonD0Ev


vtable for android::C2AllocationGralloc
_ZTVN7android19C2AllocationGrallocE: 5 entries
8    (int (*)(...)) _ZN7android19C2AllocationGralloc3mapE6C2Rect13C2MemoryUsageP7C2FenceP14C2PlanarLayoutPPh
12    (int (*)(...)) _ZN7android19C2AllocationGralloc5unmapEPPh6C2RectP7C2Fence
24    (int (*)(...)) _ZNK7android19C2AllocationGralloc6equalsERKNSt3__110shared_ptrIK19C2GraphicAllocationEE
28    (int (*)(...)) _ZN7android19C2AllocationGrallocD2Ev
32    (int (*)(...)) _ZN7android19C2AllocationGrallocD0Ev


vtable for android::C2AllocatorGralloc
_ZTVN7android18C2AllocatorGrallocE: 7 entries
8    (int (*)(...)) _ZNK7android18C2AllocatorGralloc7getNameEv
12    (int (*)(...)) _ZNK7android18C2AllocatorGralloc5getIdEv
16    (int (*)(...)) _ZNK7android18C2AllocatorGralloc9getTraitsEv
28    (int (*)(...)) _ZN7android18C2AllocatorGralloc20newGraphicAllocationEjjj13C2MemoryUsagePNSt3__110shared_ptrI19C2GraphicAllocationEE
32    (int (*)(...)) _ZN7android18C2AllocatorGralloc22priorGraphicAllocationEPK13native_handlePNSt3__110shared_ptrI19C2GraphicAllocationEE
36    (int (*)(...)) _ZN7android18C2AllocatorGrallocD2Ev
40    (int (*)(...)) _ZN7android18C2AllocatorGrallocD0Ev


vtable for C2BasicLinearBlockPool
_ZTV22C2BasicLinearBlockPool: 1 entries
16    (int (*)(...)) _ZN22C2BasicLinearBlockPool16fetchLinearBlockEj13C2MemoryUsagePNSt3__110shared_ptrI13C2LinearBlockEE


vtable for C2PooledBlockPool
_ZTV17C2PooledBlockPool: 3 entries
16    (int (*)(...)) _ZN17C2PooledBlockPool16fetchLinearBlockEj13C2MemoryUsagePNSt3__110shared_ptrI13C2LinearBlockEE
28    (int (*)(...)) _ZN17C2PooledBlockPoolD2Ev
32    (int (*)(...)) _ZN17C2PooledBlockPoolD0Ev


vtable for C2BasicGraphicBlockPool
_ZTV23C2BasicGraphicBlockPool: 1 entries
24    (int (*)(...)) _ZN23C2BasicGraphicBlockPool17fetchGraphicBlockEjjj13C2MemoryUsagePNSt3__110shared_ptrI14C2GraphicBlockEE


vtable for _C2BufferPoolAllocator
_ZTV22_C2BufferPoolAllocator: 2 entries
8    (int (*)(...)) _ZN22_C2BufferPoolAllocator8allocateERKNSt3__16vectorIhNS0_9allocatorIhEEEEPNS0_10shared_ptrIN7android8hardware5media10bufferpool4V1_014implementation20BufferPoolAllocationEEE
12    (int (*)(...)) _ZN22_C2BufferPoolAllocator10compatibleERKNSt3__16vectorIhNS0_9allocatorIhEEEES6_


vtable for android::C2PlatformAllocatorStoreImpl
_ZTVN7android28C2PlatformAllocatorStoreImplE: 3 entries
16    (int (*)(...)) _ZN7android28C2PlatformAllocatorStoreImpl14fetchAllocatorEjPNSt3__110shared_ptrI11C2AllocatorEE
20    (int (*)(...)) _ZNSt3__110__function6__funcINS_14default_deleteI20C2ComponentInterfaceEENS_9allocatorIS4_EEFvPS3_EE7destroyEv
24    (int (*)(...)) _ZNSt3__120__shared_ptr_emplaceIN10C2ReadView4ImplENS_9allocatorIS2_EEE21__on_zero_shared_weakEv


vtable for android::C2PlatformComponentStore::ComponentModule
_ZTVN7android24C2PlatformComponentStore15ComponentModuleE: 4 entries
8    (int (*)(...)) _ZN7android24C2PlatformComponentStore15ComponentModule15createComponentEjPNSt3__110shared_ptrI11C2ComponentEENS2_8functionIFvPS4_EEE
12    (int (*)(...)) _ZN7android24C2PlatformComponentStore15ComponentModule15createInterfaceEjPNSt3__110shared_ptrI20C2ComponentInterfaceEENS2_8functionIFvPS4_EEE
16    (int (*)(...)) _ZN7android24C2PlatformComponentStore15ComponentModuleD2Ev
20    (int (*)(...)) _ZN7android24C2PlatformComponentStore15ComponentModuleD0Ev


vtable for android::C2PlatformComponentStore
_ZTVN7android24C2PlatformComponentStoreE: 10 entries
8    (int (*)(...)) _ZNK7android24C2PlatformComponentStore7getNameEv
12    (int (*)(...)) _ZN7android24C2PlatformComponentStore15createComponentENSt3__112basic_stringIcNS1_11char_traitsIcEENS1_9allocatorIcEEEEPNS1_10shared_ptrI11C2ComponentEE
16    (int (*)(...)) _ZN7android24C2PlatformComponentStore15createInterfaceENSt3__112basic_stringIcNS1_11char_traitsIcEENS1_9allocatorIcEEEEPNS1_10shared_ptrI20C2ComponentInterfaceEE
20    (int (*)(...)) _ZN7android24C2PlatformComponentStore14listComponentsEv
24    (int (*)(...)) _ZN7android24C2PlatformComponentStore10copyBufferENSt3__110shared_ptrI15C2GraphicBufferEES4_
28    (int (*)(...)) _ZNK7android24C2PlatformComponentStore8query_smERKNSt3__16vectorIP7C2ParamNS1_9allocatorIS4_EEEERKNS2_INS3_5IndexENS5_ISA_EEEEPNS2_INS1_10unique_ptrIS3_NS1_14default_deleteIS3_EEEENS5_ISI_EEEE
32    (int (*)(...)) _ZN7android24C2PlatformComponentStore9config_smERKNSt3__16vectorIP7C2ParamNS1_9allocatorIS4_EEEEPNS2_INS1_10unique_ptrI15C2SettingResultNS1_14default_deleteISB_EEEENS5_ISE_EEEE
36    (int (*)(...)) _ZNK7android24C2PlatformComponentStore17getParamReflectorEv
40    (int (*)(...)) _ZNK7android24C2PlatformComponentStore23querySupportedParams_nbEPNSt3__16vectorINS1_10shared_ptrI17C2ParamDescriptorEENS1_9allocatorIS5_EEEE
44    (int (*)(...)) _ZNK7android24C2PlatformComponentStore23querySupportedValues_smERNSt3__16vectorI27C2FieldSupportedValuesQueryNS1_9allocatorIS3_EEEE
